Archive member included to satisfy reference by file (symbol)

obj_emsk_22/gnu_arcem7d/board/emsk/common/emsk_init.o
                              obj_emsk_22/gnu_arcem7d/board/board.o (board_init)
obj_emsk_22/gnu_arcem7d/board/emsk/drivers/mux/mux.o
                              obj_emsk_22/gnu_arcem7d/board/emsk/common/emsk_init.o (io_mux_init)
obj_emsk_22/gnu_arcem7d/board/emsk/drivers/pmwifi/pmwifi.o
                              obj_emsk_22/gnu_arcem7d/board/board.o (wnic_get_dev)
obj_emsk_22/gnu_arcem7d/middleware/common/console_io.o
                              obj_emsk_22/gnu_arcem7d/board/board.o (xprintf_setup)
obj_emsk_22/gnu_arcem7d/middleware/common/xprintf/xprintf.o
                              obj_emsk_22/gnu_arcem7d/middleware/common/console_io.o (xfunc_out)
obj_emsk_22/gnu_arcem7d/middleware/fatfs/src/ff.o
                              obj_emsk_22/gnu_arcem7d/board/board.o (f_mount)
obj_emsk_22/gnu_arcem7d/middleware/fatfs/src/ff_unicode.o
                              obj_emsk_22/gnu_arcem7d/middleware/fatfs/src/ff.o (ff_convert)
obj_emsk_22/gnu_arcem7d/middleware/lwip-contrib/ports/arc/lwip_pmwifi.o
                              obj_emsk_22/gnu_arcem7d/board/board.o (lwip_pmwifi_init)
obj_emsk_22/gnu_arcem7d/middleware/lwip-contrib/ports/arc/netif/pmwifi_netif.o
                              obj_emsk_22/gnu_arcem7d/middleware/lwip-contrib/ports/arc/lwip_pmwifi.o (pmwifi_on_input)
obj_emsk_22/gnu_arcem7d/middleware/lwip-contrib/ports/arc/sys_arch/freertos/sys_arch.o
                              obj_emsk_22/gnu_arcem7d/middleware/lwip-contrib/ports/arc/netif/pmwifi_netif.o (sys_sem_new)
obj_emsk_22/gnu_arcem7d/middleware/vending-machine/source/led_task.o
                              obj_emsk_22/gnu_arcem7d/board/board.o (LED_task)
obj_emsk_22/gnu_arcem7d/middleware/vending-machine/source/temp_task.o
                              obj_emsk_22/gnu_arcem7d/board/board.o (temp_task)
obj_emsk_22/gnu_arcem7d/middleware/vending-machine/source/vm_task.o
                              obj_emsk_22/gnu_arcem7d/application/./Source/main.o (enQueue)
obj_emsk_22/gnu_arcem7d/middleware/vending-machine/source/oled_task.o
                              obj_emsk_22/gnu_arcem7d/board/board.o (oled_task)
obj_emsk_22/gnu_arcem7d/middleware/vending-machine/source/numpad_task.o
                              obj_emsk_22/gnu_arcem7d/board/board.o (numpad_task)
obj_emsk_22/gnu_arcem7d/middleware/vending-machine/source/communication_task.o
                              obj_emsk_22/gnu_arcem7d/board/board.o (communication_task)
obj_emsk_22/gnu_arcem7d/os/freertos/portable/synopsys/arc/arc_freertos_exceptions.o
                              obj_emsk_22/gnu_arcem7d/board/board.o (freertos_exc_init)
obj_emsk_22/gnu_arcem7d/os/freertos/tasks.o
                              obj_emsk_22/gnu_arcem7d/board/board.o (xTaskCreate)
obj_emsk_22/gnu_arcem7d/os/freertos/list.o
                              obj_emsk_22/gnu_arcem7d/os/freertos/tasks.o (vListInitialise)
obj_emsk_22/gnu_arcem7d/os/freertos/queue.o
                              obj_emsk_22/gnu_arcem7d/board/board.o (xQueueGenericCreate)
obj_emsk_22/gnu_arcem7d/arc/arc_timer.o
                              obj_emsk_22/gnu_arcem7d/board/emsk/common/emsk_init.o (timer_init)
obj_emsk_22/gnu_arcem7d/arc/arc_cache.o
                              obj_emsk_22/gnu_arcem7d/arc/startup/arc_startup.o (arc_cache_init)
obj_emsk_22/gnu_arcem7d/arc/arc_exception.o
                              obj_emsk_22/gnu_arcem7d/middleware/lwip-contrib/ports/arc/sys_arch/freertos/sys_arch.o (cpu_lock_save)
obj_emsk_22/gnu_arcem7d/arc/arc_exc_asm.o
                              obj_emsk_22/gnu_arcem7d/arc/arc_exception.o (exc_entry_cpu)
obj_emsk_22/gnu_arcem7d/library/clib/embarc_misc.o
                              obj_emsk_22/gnu_arcem7d/middleware/common/console_io.o (gnu_printf_setup)
obj_emsk_22/gnu_arcem7d/board/emsk/drivers/ip/designware/gpio/dw_gpio_obj.o
                              obj_emsk_22/gnu_arcem7d/middleware/vending-machine/source/numpad_task.o (gpio_get_dev)
obj_emsk_22/gnu_arcem7d/board/emsk/drivers/ip/designware/uart/dw_uart_obj.o
                              obj_emsk_22/gnu_arcem7d/middleware/common/console_io.o (uart_get_dev)
obj_emsk_22/gnu_arcem7d/device/ip/designware/gpio/dw_gpio.o
                              obj_emsk_22/gnu_arcem7d/board/emsk/drivers/ip/designware/gpio/dw_gpio_obj.o (dw_gpio_open)
obj_emsk_22/gnu_arcem7d/device/ip/designware/uart/dw_uart.o
                              obj_emsk_22/gnu_arcem7d/board/emsk/drivers/ip/designware/uart/dw_uart_obj.o (dw_uart_open)
obj_emsk_22/gnu_arcem7d/device/peripheral/sensor/temperature/adt7420/adt7420.o
                              obj_emsk_22/gnu_arcem7d/middleware/vending-machine/source/temp_task.o (adt7420_sensor_init)
obj_emsk_22/gnu_arcem7d/device/peripheral/wifi/rw009/rw009.o
                              obj_emsk_22/gnu_arcem7d/board/emsk/drivers/pmwifi/pmwifi.o (rw009_wnic_get_info)
obj_emsk_22/gnu_arcem7d/board/emsk/common/emsk_gpio.o
                              obj_emsk_22/gnu_arcem7d/board/emsk/common/emsk_init.o (emsk_gpio_init)
obj_emsk_22/gnu_arcem7d/board/emsk/common/emsk_timer.o
                              obj_emsk_22/gnu_arcem7d/device/peripheral/wifi/rw009/rw009.o (gl_emsk_ms_cnt)
obj_emsk_22/gnu_arcem7d/board/emsk/drivers/sdcard/emsk_sdcard.o
                              obj_emsk_22/gnu_arcem7d/board/emsk/common/emsk_timer.o (emsk_sdcard_1ms_update)
obj_emsk_22/gnu_arcem7d/middleware/fatfs/src/diskio.o
                              obj_emsk_22/gnu_arcem7d/middleware/fatfs/src/ff.o (disk_initialize)
obj_emsk_22/gnu_arcem7d/middleware/lwip/src/core/pbuf.o
                              obj_emsk_22/gnu_arcem7d/middleware/lwip-contrib/ports/arc/netif/pmwifi_netif.o (pbuf_alloc)
obj_emsk_22/gnu_arcem7d/middleware/lwip/src/core/dns.o
                              obj_emsk_22/gnu_arcem7d/middleware/lwip-contrib/ports/arc/lwip_pmwifi.o (dns_getserver)
obj_emsk_22/gnu_arcem7d/middleware/lwip/src/core/mem.o
                              obj_emsk_22/gnu_arcem7d/middleware/lwip/src/core/pbuf.o (mem_free)
obj_emsk_22/gnu_arcem7d/middleware/lwip/src/core/udp.o
                              obj_emsk_22/gnu_arcem7d/middleware/lwip/src/core/dns.o (udp_sendto)
obj_emsk_22/gnu_arcem7d/middleware/lwip/src/core/def.o
                              obj_emsk_22/gnu_arcem7d/middleware/lwip-contrib/ports/arc/netif/pmwifi_netif.o (lwip_htons)
obj_emsk_22/gnu_arcem7d/middleware/lwip/src/core/tcp.o
                              obj_emsk_22/gnu_arcem7d/middleware/lwip/src/core/pbuf.o (tcp_active_pcbs)
obj_emsk_22/gnu_arcem7d/middleware/lwip/src/core/netif.o
                              obj_emsk_22/gnu_arcem7d/middleware/lwip-contrib/ports/arc/lwip_pmwifi.o (netif_add)
obj_emsk_22/gnu_arcem7d/middleware/lwip/src/core/timeouts.o
                              obj_emsk_22/gnu_arcem7d/middleware/lwip/src/core/tcp.o (tcp_timer_needed)
obj_emsk_22/gnu_arcem7d/middleware/lwip/src/core/tcp_in.o
                              obj_emsk_22/gnu_arcem7d/middleware/lwip/src/core/tcp.o (tcp_input_pcb)
obj_emsk_22/gnu_arcem7d/middleware/lwip/src/core/memp.o
                              obj_emsk_22/gnu_arcem7d/middleware/lwip/src/core/pbuf.o (memp_malloc)
obj_emsk_22/gnu_arcem7d/middleware/lwip/src/core/inet_chksum.o
                              obj_emsk_22/gnu_arcem7d/middleware/lwip/src/core/udp.o (ip_chksum_pseudo)
obj_emsk_22/gnu_arcem7d/middleware/lwip/src/core/ipv4/icmp.o
                              obj_emsk_22/gnu_arcem7d/middleware/lwip/src/core/udp.o (icmp_dest_unreach)
obj_emsk_22/gnu_arcem7d/middleware/lwip/src/core/ipv4/ip4.o
                              obj_emsk_22/gnu_arcem7d/middleware/lwip/src/core/udp.o (ip4_route)
obj_emsk_22/gnu_arcem7d/middleware/lwip/src/core/ipv4/ip4_addr.o
                              obj_emsk_22/gnu_arcem7d/middleware/lwip/src/core/dns.o (ip_addr_any)
obj_emsk_22/gnu_arcem7d/middleware/lwip/src/core/ipv4/etharp.o
                              obj_emsk_22/gnu_arcem7d/middleware/lwip/src/core/timeouts.o (etharp_tmr)
obj_emsk_22/gnu_arcem7d/middleware/lwip/src/core/ipv4/dhcp.o
                              obj_emsk_22/gnu_arcem7d/middleware/lwip/src/core/timeouts.o (dhcp_coarse_tmr)
obj_emsk_22/gnu_arcem7d/middleware/lwip/src/core/ipv4/ip4_frag.o
                              obj_emsk_22/gnu_arcem7d/middleware/lwip/src/core/timeouts.o (ip_reass_tmr)
obj_emsk_22/gnu_arcem7d/middleware/lwip/src/netif/ethernet.o
                              obj_emsk_22/gnu_arcem7d/middleware/lwip/src/core/ipv4/etharp.o (ethbroadcast)
obj_emsk_22/gnu_arcem7d/middleware/lwip/src/api/tcpip.o
                              obj_emsk_22/gnu_arcem7d/middleware/lwip/src/core/timeouts.o (lock_tcpip_core)
obj_emsk_22/gnu_arcem7d/middleware/mbedtls/library/ctr_drbg.o
                              obj_emsk_22/gnu_arcem7d/middleware/vending-machine/source/communication_task.o (mbedtls_ctr_drbg_init)
obj_emsk_22/gnu_arcem7d/middleware/mbedtls/library/x509_crt.o
                              obj_emsk_22/gnu_arcem7d/middleware/vending-machine/source/communication_task.o (mbedtls_x509_crt_free)
obj_emsk_22/gnu_arcem7d/middleware/mbedtls/library/x509.o
                              obj_emsk_22/gnu_arcem7d/middleware/mbedtls/library/x509_crt.o (mbedtls_x509_get_serial)
obj_emsk_22/gnu_arcem7d/middleware/mbedtls/library/ssl_ciphersuites.o
                              obj_emsk_22/gnu_arcem7d/middleware/vending-machine/source/communication_task.o (mbedtls_ssl_ciphersuite_from_id)
obj_emsk_22/gnu_arcem7d/middleware/mbedtls/library/certs.o
                              obj_emsk_22/gnu_arcem7d/middleware/vending-machine/source/communication_task.o (mbedtls_test_cas)
obj_emsk_22/gnu_arcem7d/middleware/mbedtls/library/threading.o
                              obj_emsk_22/gnu_arcem7d/middleware/mbedtls/library/ctr_drbg.o (mbedtls_mutex_init)
obj_emsk_22/gnu_arcem7d/middleware/mbedtls/library/pk.o
                              obj_emsk_22/gnu_arcem7d/middleware/mbedtls/library/x509_crt.o (mbedtls_pk_get_bitlen)
obj_emsk_22/gnu_arcem7d/middleware/mbedtls/library/asn1parse.o
                              obj_emsk_22/gnu_arcem7d/middleware/mbedtls/library/x509_crt.o (mbedtls_asn1_get_len)
obj_emsk_22/gnu_arcem7d/middleware/mbedtls/library/rsa.o
                              obj_emsk_22/gnu_arcem7d/middleware/mbedtls/library/pk.o (mbedtls_rsa_rsassa_pss_verify_ext)
obj_emsk_22/gnu_arcem7d/middleware/mbedtls/library/oid.o
                              obj_emsk_22/gnu_arcem7d/middleware/mbedtls/library/x509.o (mbedtls_oid_get_attr_short_name)
obj_emsk_22/gnu_arcem7d/middleware/mbedtls/library/sha1.o
                              obj_emsk_22/gnu_arcem7d/middleware/mbedtls/library/rsa.o (mbedtls_sha1)
obj_emsk_22/gnu_arcem7d/middleware/mbedtls/library/pkparse.o
                              obj_emsk_22/gnu_arcem7d/middleware/mbedtls/library/x509_crt.o (mbedtls_pk_load_file)
obj_emsk_22/gnu_arcem7d/middleware/mbedtls/library/ssl_tls.o
                              obj_emsk_22/gnu_arcem7d/middleware/vending-machine/source/communication_task.o (mbedtls_ssl_session_free)
obj_emsk_22/gnu_arcem7d/middleware/mbedtls/library/dhm.o
                              obj_emsk_22/gnu_arcem7d/middleware/mbedtls/library/ssl_tls.o (mbedtls_dhm_init)
obj_emsk_22/gnu_arcem7d/middleware/mbedtls/library/cipher.o
                              obj_emsk_22/gnu_arcem7d/middleware/mbedtls/library/ssl_tls.o (mbedtls_cipher_info_from_type)
obj_emsk_22/gnu_arcem7d/middleware/mbedtls/library/sha512.o
                              obj_emsk_22/gnu_arcem7d/middleware/mbedtls/library/ssl_tls.o (mbedtls_sha512_init)
obj_emsk_22/gnu_arcem7d/middleware/mbedtls/library/entropy.o
                              obj_emsk_22/gnu_arcem7d/middleware/vending-machine/source/communication_task.o (mbedtls_entropy_init)
obj_emsk_22/gnu_arcem7d/middleware/mbedtls/library/aes.o
                              obj_emsk_22/gnu_arcem7d/middleware/mbedtls/library/ctr_drbg.o (mbedtls_aes_init)
obj_emsk_22/gnu_arcem7d/middleware/mbedtls/library/debug.o
                              obj_emsk_22/gnu_arcem7d/middleware/vending-machine/source/communication_task.o (mbedtls_debug_set_threshold)
obj_emsk_22/gnu_arcem7d/middleware/mbedtls/library/havege.o
                              obj_emsk_22/gnu_arcem7d/middleware/mbedtls/library/entropy.o (mbedtls_havege_init)
obj_emsk_22/gnu_arcem7d/middleware/mbedtls/library/entropy_poll.o
                              obj_emsk_22/gnu_arcem7d/middleware/mbedtls/library/entropy.o (mbedtls_hardclock_poll)
obj_emsk_22/gnu_arcem7d/middleware/mbedtls/library/error.o
                              obj_emsk_22/gnu_arcem7d/middleware/vending-machine/source/communication_task.o (mbedtls_strerror)
obj_emsk_22/gnu_arcem7d/middleware/mbedtls/library/pem.o
                              obj_emsk_22/gnu_arcem7d/middleware/mbedtls/library/x509_crt.o (mbedtls_pem_init)
obj_emsk_22/gnu_arcem7d/middleware/mbedtls/library/pkcs12.o
                              obj_emsk_22/gnu_arcem7d/middleware/mbedtls/library/pkparse.o (mbedtls_pkcs12_pbe_sha1_rc4_128)
obj_emsk_22/gnu_arcem7d/middleware/mbedtls/embarc/threading_alt.o
                              obj_emsk_22/gnu_arcem7d/middleware/mbedtls/library/threading.o (threading_mutex_init_freertos)
obj_emsk_22/gnu_arcem7d/middleware/mbedtls/embarc/timing_alt.o
                              obj_emsk_22/gnu_arcem7d/middleware/mbedtls/library/havege.o (mbedtls_timing_hardclock)
obj_emsk_22/gnu_arcem7d/middleware/mbedtls/embarc/net_alt.o
                              obj_emsk_22/gnu_arcem7d/middleware/vending-machine/source/communication_task.o (mbedtls_net_init)
obj_emsk_22/gnu_arcem7d/middleware/u8glib/csrc/u8g_com_embarc_ssd1306_spi.o
                              obj_emsk_22/gnu_arcem7d/middleware/vending-machine/source/oled_task.o (u8g_com_embarc_ssd_spi_fn)
obj_emsk_22/gnu_arcem7d/middleware/u8glib/csrc/u8g_dev_embarc_ssd1306_128x64.o
                              obj_emsk_22/gnu_arcem7d/middleware/vending-machine/source/oled_task.o (u8g_dev_ssd1306_128x64_2x_hw_spi)
obj_emsk_22/gnu_arcem7d/middleware/u8glib/csrc/u8g_pb.o
                              obj_emsk_22/gnu_arcem7d/middleware/u8glib/csrc/u8g_dev_embarc_ssd1306_128x64.o (u8g_pb_WriteBuffer)
obj_emsk_22/gnu_arcem7d/middleware/u8glib/csrc/u8g_pb16v1.o
                              obj_emsk_22/gnu_arcem7d/middleware/u8glib/csrc/u8g_dev_embarc_ssd1306_128x64.o (u8g_dev_pb16v1_base_fn)
obj_emsk_22/gnu_arcem7d/middleware/u8glib/csrc/u8g_font.o
                              obj_emsk_22/gnu_arcem7d/middleware/vending-machine/source/oled_task.o (u8g_DrawStr)
obj_emsk_22/gnu_arcem7d/middleware/u8glib/csrc/u8g_pb8v1.o
                              obj_emsk_22/gnu_arcem7d/middleware/u8glib/csrc/u8g_dev_embarc_ssd1306_128x64.o (u8g_dev_pb8v1_base_fn)
obj_emsk_22/gnu_arcem7d/middleware/u8glib/csrc/u8g_rect.o
                              obj_emsk_22/gnu_arcem7d/middleware/vending-machine/source/oled_task.o (u8g_DrawFrame)
obj_emsk_22/gnu_arcem7d/middleware/u8glib/csrc/u8g_ll_api.o
                              obj_emsk_22/gnu_arcem7d/middleware/vending-machine/source/oled_task.o (u8g_Begin)
obj_emsk_22/gnu_arcem7d/middleware/u8glib/csrc/u8g_delay.o
                              obj_emsk_22/gnu_arcem7d/middleware/u8glib/csrc/u8g_com_embarc_ssd1306_spi.o (u8g_Delay)
obj_emsk_22/gnu_arcem7d/middleware/u8glib/csrc/u8g_clip.o
                              obj_emsk_22/gnu_arcem7d/middleware/u8glib/csrc/u8g_font.o (u8g_IsBBXIntersection)
obj_emsk_22/gnu_arcem7d/middleware/u8glib/csrc/u8g_line.o
                              obj_emsk_22/gnu_arcem7d/middleware/vending-machine/source/oled_task.o (u8g_DrawLine)
obj_emsk_22/gnu_arcem7d/middleware/u8glib/csrc/u8g_state.o
                              obj_emsk_22/gnu_arcem7d/middleware/u8glib/csrc/u8g_ll_api.o (u8g_state_dummy_cb)
obj_emsk_22/gnu_arcem7d/middleware/u8glib/csrc/u8g_circle.o
                              obj_emsk_22/gnu_arcem7d/middleware/u8glib/csrc/u8g_rect.o (u8g_draw_circle)
obj_emsk_22/gnu_arcem7d/middleware/u8glib/fntsrc/u8g_font_gdr30.o
                              obj_emsk_22/gnu_arcem7d/middleware/vending-machine/source/oled_task.o (u8g_font_gdr30)
obj_emsk_22/gnu_arcem7d/middleware/u8glib/fntsrc/u8g_font_gdr20.o
                              obj_emsk_22/gnu_arcem7d/middleware/vending-machine/source/oled_task.o (u8g_font_gdr20)
obj_emsk_22/gnu_arcem7d/middleware/u8glib/fntsrc/u8g_font_6x10.o
                              obj_emsk_22/gnu_arcem7d/middleware/vending-machine/source/oled_task.o (u8g_font_6x10)
obj_emsk_22/gnu_arcem7d/os/freertos/portable/synopsys/arc/port.o
                              obj_emsk_22/gnu_arcem7d/os/freertos/tasks.o (ulCriticalNesting)
obj_emsk_22/gnu_arcem7d/os/freertos/portable/heap_sel.o
                              obj_emsk_22/gnu_arcem7d/os/freertos/tasks.o (pvPortMalloc)
obj_emsk_22/gnu_arcem7d/os/freertos/portable/synopsys/arc/arc_support.o
                              obj_emsk_22/gnu_arcem7d/os/freertos/portable/synopsys/arc/port.o (dispatch)
obj_emsk_22/gnu_arcem7d/library/clib/fatfs_dirent.o
                              obj_emsk_22/gnu_arcem7d/middleware/mbedtls/library/x509_crt.o (opendir)
obj_emsk_22/gnu_arcem7d/board/emsk/drivers/ip/designware/iic/dw_iic_obj.o
                              obj_emsk_22/gnu_arcem7d/device/peripheral/sensor/temperature/adt7420/adt7420.o (iic_get_dev)
obj_emsk_22/gnu_arcem7d/board/emsk/drivers/ip/designware/spi/dw_spi_obj.o
                              obj_emsk_22/gnu_arcem7d/device/peripheral/wifi/rw009/rw009.o (spi_get_dev)
obj_emsk_22/gnu_arcem7d/device/ip/designware/iic/dw_iic.o
                              obj_emsk_22/gnu_arcem7d/board/emsk/drivers/ip/designware/iic/dw_iic_obj.o (dw_iic_open)
obj_emsk_22/gnu_arcem7d/device/ip/designware/spi/dw_spi.o
                              obj_emsk_22/gnu_arcem7d/board/emsk/drivers/ip/designware/spi/dw_spi_obj.o (dw_spi_open)
obj_emsk_22/gnu_arcem7d/board/emsk/drivers/sdcard/emsk_sdcard_spi.o
                              obj_emsk_22/gnu_arcem7d/board/emsk/drivers/sdcard/emsk_sdcard.o (sdcard_spi_0_diskio)
obj_emsk_22/gnu_arcem7d/middleware/fatfs/src/diskdrv/ff_sdcard_spi.o
                              obj_emsk_22/gnu_arcem7d/board/emsk/drivers/sdcard/emsk_sdcard_spi.o (sdcard_spi_diskio_initialize)
obj_emsk_22/gnu_arcem7d/middleware/lwip/src/core/tcp_out.o
                              obj_emsk_22/gnu_arcem7d/middleware/lwip/src/core/tcp.o (tcp_send_fin)
obj_emsk_22/gnu_arcem7d/middleware/lwip/src/core/raw.o
                              obj_emsk_22/gnu_arcem7d/middleware/lwip/src/core/ipv4/ip4.o (raw_input)
obj_emsk_22/gnu_arcem7d/middleware/lwip/src/core/ip.o
                              obj_emsk_22/gnu_arcem7d/middleware/lwip/src/core/udp.o (ip_data)
obj_emsk_22/gnu_arcem7d/middleware/lwip/src/core/init.o
                              obj_emsk_22/gnu_arcem7d/middleware/lwip/src/api/tcpip.o (lwip_init)
obj_emsk_22/gnu_arcem7d/middleware/lwip/src/api/sockets.o
                              obj_emsk_22/gnu_arcem7d/middleware/mbedtls/embarc/net_alt.o (lwip_accept)
obj_emsk_22/gnu_arcem7d/middleware/lwip/src/api/err.o
                              obj_emsk_22/gnu_arcem7d/middleware/lwip/src/api/sockets.o (err_to_errno)
obj_emsk_22/gnu_arcem7d/middleware/lwip/src/api/netbuf.o
                              obj_emsk_22/gnu_arcem7d/middleware/lwip/src/api/sockets.o (netbuf_new)
obj_emsk_22/gnu_arcem7d/middleware/lwip/src/api/api_lib.o
                              obj_emsk_22/gnu_arcem7d/middleware/lwip/src/api/sockets.o (netconn_new_with_proto_and_callback)
obj_emsk_22/gnu_arcem7d/middleware/lwip/src/api/netdb.o
                              obj_emsk_22/gnu_arcem7d/middleware/mbedtls/embarc/net_alt.o (lwip_freeaddrinfo)
obj_emsk_22/gnu_arcem7d/middleware/mbedtls/library/bignum.o
                              obj_emsk_22/gnu_arcem7d/middleware/mbedtls/library/rsa.o (mbedtls_mpi_init)
obj_emsk_22/gnu_arcem7d/middleware/mbedtls/library/ssl_cli.o
                              obj_emsk_22/gnu_arcem7d/middleware/mbedtls/library/ssl_tls.o (mbedtls_ssl_handshake_client_step)
obj_emsk_22/gnu_arcem7d/middleware/mbedtls/library/pk_wrap.o
                              obj_emsk_22/gnu_arcem7d/middleware/mbedtls/library/pk.o (mbedtls_rsa_info)
obj_emsk_22/gnu_arcem7d/middleware/mbedtls/library/base64.o
                              obj_emsk_22/gnu_arcem7d/middleware/mbedtls/library/pem.o (mbedtls_base64_encode)
obj_emsk_22/gnu_arcem7d/middleware/mbedtls/library/md.o
                              obj_emsk_22/gnu_arcem7d/middleware/mbedtls/library/x509_crt.o (mbedtls_md_info_from_type)
obj_emsk_22/gnu_arcem7d/middleware/mbedtls/library/ccm.o
                              obj_emsk_22/gnu_arcem7d/middleware/mbedtls/library/cipher.o (mbedtls_ccm_encrypt_and_tag)
obj_emsk_22/gnu_arcem7d/middleware/mbedtls/library/ecp_curves.o
                              obj_emsk_22/gnu_arcem7d/middleware/mbedtls/library/pkparse.o (mbedtls_ecp_group_load)
obj_emsk_22/gnu_arcem7d/middleware/mbedtls/library/arc4.o
                              obj_emsk_22/gnu_arcem7d/middleware/mbedtls/library/pkcs12.o (mbedtls_arc4_init)
obj_emsk_22/gnu_arcem7d/middleware/mbedtls/library/ecp.o
                              obj_emsk_22/gnu_arcem7d/middleware/mbedtls/library/pkparse.o (mbedtls_ecp_grp_id_list)
obj_emsk_22/gnu_arcem7d/middleware/mbedtls/library/ecdh.o
                              obj_emsk_22/gnu_arcem7d/middleware/mbedtls/library/ssl_tls.o (mbedtls_ecdh_init)
obj_emsk_22/gnu_arcem7d/middleware/mbedtls/library/cipher_wrap.o
                              obj_emsk_22/gnu_arcem7d/middleware/mbedtls/library/cipher.o (mbedtls_cipher_definitions)
obj_emsk_22/gnu_arcem7d/middleware/mbedtls/library/des.o
                              obj_emsk_22/gnu_arcem7d/middleware/mbedtls/library/pem.o (mbedtls_des_init)
obj_emsk_22/gnu_arcem7d/middleware/mbedtls/library/md5.o
                              obj_emsk_22/gnu_arcem7d/middleware/mbedtls/library/ssl_tls.o (mbedtls_md5_init)
obj_emsk_22/gnu_arcem7d/middleware/mbedtls/library/pkcs5.o
                              obj_emsk_22/gnu_arcem7d/middleware/mbedtls/library/pkparse.o (mbedtls_pkcs5_pbes2)
obj_emsk_22/gnu_arcem7d/middleware/mbedtls/library/gcm.o
                              obj_emsk_22/gnu_arcem7d/middleware/mbedtls/library/cipher_wrap.o (mbedtls_gcm_init)
obj_emsk_22/gnu_arcem7d/middleware/mbedtls/library/sha256.o
                              obj_emsk_22/gnu_arcem7d/middleware/mbedtls/library/ssl_tls.o (mbedtls_sha256_init)
obj_emsk_22/gnu_arcem7d/middleware/mbedtls/library/ssl_srv.o
                              obj_emsk_22/gnu_arcem7d/middleware/mbedtls/library/ssl_tls.o (mbedtls_ssl_handshake_server_step)
obj_emsk_22/gnu_arcem7d/middleware/mbedtls/library/ecdsa.o
                              obj_emsk_22/gnu_arcem7d/middleware/mbedtls/library/pk_wrap.o (mbedtls_ecdsa_write_signature)
obj_emsk_22/gnu_arcem7d/middleware/mbedtls/library/md_wrap.o
                              obj_emsk_22/gnu_arcem7d/middleware/mbedtls/library/md.o (mbedtls_md5_info)
obj_emsk_22/gnu_arcem7d/middleware/mbedtls/library/hmac_drbg.o
                              obj_emsk_22/gnu_arcem7d/middleware/mbedtls/library/ecdsa.o (mbedtls_hmac_drbg_init)
obj_emsk_22/gnu_arcem7d/middleware/u8glib/csrc/u8g_com_embarc_ssd1306_i2c.o
                              obj_emsk_22/gnu_arcem7d/middleware/u8glib/csrc/u8g_dev_embarc_ssd1306_128x64.o (u8g_com_embarc_ssd_i2c_fn)
obj_emsk_22/gnu_arcem7d/middleware/u8glib/csrc/u8g_com_api.o
                              obj_emsk_22/gnu_arcem7d/middleware/u8glib/csrc/u8g_dev_embarc_ssd1306_128x64.o (u8g_InitCom)
obj_emsk_22/gnu_arcem7d/middleware/u8glib/csrc/u8g_page.o
                              obj_emsk_22/gnu_arcem7d/middleware/u8glib/csrc/u8g_pb16v1.o (u8g_page_First)
obj_emsk_22/gnu_arcem7d/middleware/lwip/src/api/api_msg.o
                              obj_emsk_22/gnu_arcem7d/middleware/lwip/src/api/api_lib.o (netconn_aborted)
obj_emsk_22/gnu_arcem7d/middleware/mbedtls/library/ripemd160.o
                              obj_emsk_22/gnu_arcem7d/middleware/mbedtls/library/md_wrap.o (mbedtls_ripemd160_init)
obj_emsk_22/gnu_arcem7d/middleware/mbedtls/library/camellia.o
                              obj_emsk_22/gnu_arcem7d/middleware/mbedtls/library/cipher_wrap.o (mbedtls_camellia_init)
obj_emsk_22/gnu_arcem7d/middleware/mbedtls/library/asn1write.o
                              obj_emsk_22/gnu_arcem7d/middleware/mbedtls/library/ecdsa.o (mbedtls_asn1_write_len)
obj_emsk_22/gnu_arcem7d/middleware/mbedtls/library/blowfish.o
                              obj_emsk_22/gnu_arcem7d/middleware/mbedtls/library/cipher_wrap.o (mbedtls_blowfish_init)
d:/arc_gnu/bin/../lib/gcc/arc-elf32/7.1.1/../../../../arc-elf32/lib/em4_dmips\libc.a(lib_a-atoi.o)
                              obj_emsk_22/gnu_arcem7d/middleware/lwip/src/api/netdb.o (atoi)
d:/arc_gnu/bin/../lib/gcc/arc-elf32/7.1.1/../../../../arc-elf32/lib/em4_dmips\libc.a(lib_a-calloc.o)
                              obj_emsk_22/gnu_arcem7d/middleware/mbedtls/library/x509_crt.o (calloc)
d:/arc_gnu/bin/../lib/gcc/arc-elf32/7.1.1/../../../../arc-elf32/lib/em4_dmips\libc.a(lib_a-callocr.o)
                              d:/arc_gnu/bin/../lib/gcc/arc-elf32/7.1.1/../../../../arc-elf32/lib/em4_dmips\libc.a(lib_a-calloc.o) (_calloc_r)
d:/arc_gnu/bin/../lib/gcc/arc-elf32/7.1.1/../../../../arc-elf32/lib/em4_dmips\libc.a(lib_a-fclose.o)
                              obj_emsk_22/gnu_arcem7d/middleware/mbedtls/library/ctr_drbg.o (fclose)
d:/arc_gnu/bin/../lib/gcc/arc-elf32/7.1.1/../../../../arc-elf32/lib/em4_dmips\libc.a(lib_a-fflush.o)
                              d:/arc_gnu/bin/../lib/gcc/arc-elf32/7.1.1/../../../../arc-elf32/lib/em4_dmips\libc.a(lib_a-fclose.o) (__sflush_r)
d:/arc_gnu/bin/../lib/gcc/arc-elf32/7.1.1/../../../../arc-elf32/lib/em4_dmips\libc.a(lib_a-fgets.o)
                              obj_emsk_22/gnu_arcem7d/middleware/mbedtls/library/bignum.o (fgets)
d:/arc_gnu/bin/../lib/gcc/arc-elf32/7.1.1/../../../../arc-elf32/lib/em4_dmips\libc.a(lib_a-findfp.o)
                              d:/arc_gnu/bin/../lib/gcc/arc-elf32/7.1.1/../../../../arc-elf32/lib/em4_dmips\libc.a(lib_a-fclose.o) (__sinit)
d:/arc_gnu/bin/../lib/gcc/arc-elf32/7.1.1/../../../../arc-elf32/lib/em4_dmips\libc.a(lib_a-fopen.o)
                              obj_emsk_22/gnu_arcem7d/middleware/mbedtls/library/ctr_drbg.o (fopen)
d:/arc_gnu/bin/../lib/gcc/arc-elf32/7.1.1/../../../../arc-elf32/lib/em4_dmips\libc.a(lib_a-fprintf.o)
                              obj_emsk_22/gnu_arcem7d/middleware/vending-machine/source/communication_task.o (fprintf)
d:/arc_gnu/bin/../lib/gcc/arc-elf32/7.1.1/../../../../arc-elf32/lib/em4_dmips\libc.a(lib_a-fread.o)
                              obj_emsk_22/gnu_arcem7d/middleware/mbedtls/library/ctr_drbg.o (fread)
d:/arc_gnu/bin/../lib/gcc/arc-elf32/7.1.1/../../../../arc-elf32/lib/em4_dmips\libc.a(lib_a-freer.o)
                              d:/arc_gnu/bin/../lib/gcc/arc-elf32/7.1.1/../../../../arc-elf32/lib/em4_dmips\libc.a(lib_a-fclose.o) (_free_r)
d:/arc_gnu/bin/../lib/gcc/arc-elf32/7.1.1/../../../../arc-elf32/lib/em4_dmips\libc.a(lib_a-fseek.o)
                              d:/arc_gnu/bin/../lib/gcc/arc-elf32/7.1.1/../../../../arc-elf32/lib/em4_dmips\libc.a(lib_a-fopen.o) (_fseek_r)
d:/arc_gnu/bin/../lib/gcc/arc-elf32/7.1.1/../../../../arc-elf32/lib/em4_dmips\libc.a(lib_a-fseeko.o)
                              d:/arc_gnu/bin/../lib/gcc/arc-elf32/7.1.1/../../../../arc-elf32/lib/em4_dmips\libc.a(lib_a-fseek.o) (_fseeko_r)
d:/arc_gnu/bin/../lib/gcc/arc-elf32/7.1.1/../../../../arc-elf32/lib/em4_dmips\libc.a(lib_a-fstatr.o)
                              d:/arc_gnu/bin/../lib/gcc/arc-elf32/7.1.1/../../../../arc-elf32/lib/em4_dmips\libc.a(lib_a-fseeko.o) (_fstat_r)
d:/arc_gnu/bin/../lib/gcc/arc-elf32/7.1.1/../../../../arc-elf32/lib/em4_dmips\libc.a(lib_a-ftell.o)
                              obj_emsk_22/gnu_arcem7d/middleware/mbedtls/library/ctr_drbg.o (ftell)
d:/arc_gnu/bin/../lib/gcc/arc-elf32/7.1.1/../../../../arc-elf32/lib/em4_dmips\libc.a(lib_a-ftello.o)
                              d:/arc_gnu/bin/../lib/gcc/arc-elf32/7.1.1/../../../../arc-elf32/lib/em4_dmips\libc.a(lib_a-ftell.o) (_ftello_r)
d:/arc_gnu/bin/../lib/gcc/arc-elf32/7.1.1/../../../../arc-elf32/lib/em4_dmips\libc.a(lib_a-fwalk.o)
                              d:/arc_gnu/bin/../lib/gcc/arc-elf32/7.1.1/../../../../arc-elf32/lib/em4_dmips\libc.a(lib_a-findfp.o) (_fwalk)
d:/arc_gnu/bin/../lib/gcc/arc-elf32/7.1.1/../../../../arc-elf32/lib/em4_dmips\libc.a(lib_a-fwrite.o)
                              obj_emsk_22/gnu_arcem7d/middleware/mbedtls/library/ctr_drbg.o (fwrite)
d:/arc_gnu/bin/../lib/gcc/arc-elf32/7.1.1/../../../../arc-elf32/lib/em4_dmips\libc.a(lib_a-gmtime.o)
                              obj_emsk_22/gnu_arcem7d/middleware/mbedtls/library/x509.o (gmtime)
d:/arc_gnu/bin/../lib/gcc/arc-elf32/7.1.1/../../../../arc-elf32/lib/em4_dmips\libc.a(lib_a-gmtime_r.o)
                              d:/arc_gnu/bin/../lib/gcc/arc-elf32/7.1.1/../../../../arc-elf32/lib/em4_dmips\libc.a(lib_a-gmtime.o) (gmtime_r)
d:/arc_gnu/bin/../lib/gcc/arc-elf32/7.1.1/../../../../arc-elf32/lib/em4_dmips\libc.a(lib_a-impure.o)
                              d:/arc_gnu/bin/../lib/gcc/arc-elf32/7.1.1/../../../../arc-elf32/lib/em4_dmips\libc.a(lib_a-fflush.o) (_global_impure_ptr)
d:/arc_gnu/bin/../lib/gcc/arc-elf32/7.1.1/../../../../arc-elf32/lib/em4_dmips\libc.a(lib_a-lcltime.o)
                              obj_emsk_22/gnu_arcem7d/board/emsk/drivers/sdcard/emsk_sdcard.o (localtime)
d:/arc_gnu/bin/../lib/gcc/arc-elf32/7.1.1/../../../../arc-elf32/lib/em4_dmips\libc.a(lib_a-lcltime_r.o)
                              d:/arc_gnu/bin/../lib/gcc/arc-elf32/7.1.1/../../../../arc-elf32/lib/em4_dmips\libc.a(lib_a-lcltime.o) (localtime_r)
d:/arc_gnu/bin/../lib/gcc/arc-elf32/7.1.1/../../../../arc-elf32/lib/em4_dmips\libc.a(lib_a-makebuf.o)
                              d:/arc_gnu/bin/../lib/gcc/arc-elf32/7.1.1/../../../../arc-elf32/lib/em4_dmips\libc.a(lib_a-fseeko.o) (__smakebuf_r)
d:/arc_gnu/bin/../lib/gcc/arc-elf32/7.1.1/../../../../arc-elf32/lib/em4_dmips\libc.a(lib_a-malloc.o)
                              obj_emsk_22/gnu_arcem7d/library/clib/fatfs_dirent.o (malloc)
d:/arc_gnu/bin/../lib/gcc/arc-elf32/7.1.1/../../../../arc-elf32/lib/em4_dmips\libc.a(lib_a-mallocr.o)
                              d:/arc_gnu/bin/../lib/gcc/arc-elf32/7.1.1/../../../../arc-elf32/lib/em4_dmips\libc.a(lib_a-callocr.o) (_malloc_r)
d:/arc_gnu/bin/../lib/gcc/arc-elf32/7.1.1/../../../../arc-elf32/lib/em4_dmips\libc.a(lib_a-memchr.o)
                              d:/arc_gnu/bin/../lib/gcc/arc-elf32/7.1.1/../../../../arc-elf32/lib/em4_dmips\libc.a(lib_a-fgets.o) (memchr)
d:/arc_gnu/bin/../lib/gcc/arc-elf32/7.1.1/../../../../arc-elf32/lib/em4_dmips\libc.a(lib_a-memcmp-bs-norm.o)
                              obj_emsk_22/gnu_arcem7d/middleware/lwip/src/netif/ethernet.o (memcmp)
d:/arc_gnu/bin/../lib/gcc/arc-elf32/7.1.1/../../../../arc-elf32/lib/em4_dmips\libc.a(lib_a-memcpy-bs.o)
                              obj_emsk_22/gnu_arcem7d/application/./Source/main.o (memcpy)
d:/arc_gnu/bin/../lib/gcc/arc-elf32/7.1.1/../../../../arc-elf32/lib/em4_dmips\libc.a(lib_a-memmove.o)
                              obj_emsk_22/gnu_arcem7d/middleware/mbedtls/library/ssl_tls.o (memmove)
d:/arc_gnu/bin/../lib/gcc/arc-elf32/7.1.1/../../../../arc-elf32/lib/em4_dmips\libc.a(lib_a-memset-bs.o)
                              obj_emsk_22/gnu_arcem7d/application/./Source/main.o (memset)
d:/arc_gnu/bin/../lib/gcc/arc-elf32/7.1.1/../../../../arc-elf32/lib/em4_dmips\libc.a(lib_a-mlock.o)
                              d:/arc_gnu/bin/../lib/gcc/arc-elf32/7.1.1/../../../../arc-elf32/lib/em4_dmips\libc.a(lib_a-freer.o) (__malloc_lock)
d:/arc_gnu/bin/../lib/gcc/arc-elf32/7.1.1/../../../../arc-elf32/lib/em4_dmips\libc.a(lib_a-month_lengths.o)
                              d:/arc_gnu/bin/../lib/gcc/arc-elf32/7.1.1/../../../../arc-elf32/lib/em4_dmips\libc.a(lib_a-lcltime_r.o) (__month_lengths)
d:/arc_gnu/bin/../lib/gcc/arc-elf32/7.1.1/../../../../arc-elf32/lib/em4_dmips\libc.a(lib_a-openr.o)
                              d:/arc_gnu/bin/../lib/gcc/arc-elf32/7.1.1/../../../../arc-elf32/lib/em4_dmips\libc.a(lib_a-fopen.o) (_open_r)
d:/arc_gnu/bin/../lib/gcc/arc-elf32/7.1.1/../../../../arc-elf32/lib/em4_dmips\libc.a(lib_a-printf.o)
                              obj_emsk_22/gnu_arcem7d/middleware/lwip-contrib/ports/arc/lwip_pmwifi.o (printf)
d:/arc_gnu/bin/../lib/gcc/arc-elf32/7.1.1/../../../../arc-elf32/lib/em4_dmips\libc.a(lib_a-putchar.o)
                              obj_emsk_22/gnu_arcem7d/middleware/vending-machine/source/communication_task.o (putchar)
d:/arc_gnu/bin/../lib/gcc/arc-elf32/7.1.1/../../../../arc-elf32/lib/em4_dmips\libc.a(lib_a-puts.o)
                              obj_emsk_22/gnu_arcem7d/middleware/lwip-contrib/ports/arc/lwip_pmwifi.o (puts)
d:/arc_gnu/bin/../lib/gcc/arc-elf32/7.1.1/../../../../arc-elf32/lib/em4_dmips\libc.a(lib_a-rand.o)
                              obj_emsk_22/gnu_arcem7d/middleware/lwip/src/core/dns.o (rand)
d:/arc_gnu/bin/../lib/gcc/arc-elf32/7.1.1/../../../../arc-elf32/lib/em4_dmips\libc.a(lib_a-reent.o)
                              obj_emsk_22/gnu_arcem7d/middleware/mbedtls/embarc/net_alt.o (errno)
d:/arc_gnu/bin/../lib/gcc/arc-elf32/7.1.1/../../../../arc-elf32/lib/em4_dmips\libc.a(lib_a-refill.o)
                              d:/arc_gnu/bin/../lib/gcc/arc-elf32/7.1.1/../../../../arc-elf32/lib/em4_dmips\libc.a(lib_a-fgets.o) (__srefill_r)
d:/arc_gnu/bin/../lib/gcc/arc-elf32/7.1.1/../../../../arc-elf32/lib/em4_dmips\libc.a(lib_a-sbrkr.o)
                              d:/arc_gnu/bin/../lib/gcc/arc-elf32/7.1.1/../../../../arc-elf32/lib/em4_dmips\libc.a(lib_a-freer.o) (_sbrk_r)
d:/arc_gnu/bin/../lib/gcc/arc-elf32/7.1.1/../../../../arc-elf32/lib/em4_dmips\libc.a(lib_a-snprintf.o)
                              obj_emsk_22/gnu_arcem7d/middleware/vending-machine/source/communication_task.o (snprintf)
d:/arc_gnu/bin/../lib/gcc/arc-elf32/7.1.1/../../../../arc-elf32/lib/em4_dmips\libc.a(lib_a-sprintf.o)
                              obj_emsk_22/gnu_arcem7d/middleware/vending-machine/source/oled_task.o (sprintf)
d:/arc_gnu/bin/../lib/gcc/arc-elf32/7.1.1/../../../../arc-elf32/lib/em4_dmips\libc.a(lib_a-stdio.o)
                              d:/arc_gnu/bin/../lib/gcc/arc-elf32/7.1.1/../../../../arc-elf32/lib/em4_dmips\libc.a(lib_a-findfp.o) (__sread)
d:/arc_gnu/bin/../lib/gcc/arc-elf32/7.1.1/../../../../arc-elf32/lib/em4_dmips\libc.a(lib_a-strcat.o)
                              obj_emsk_22/gnu_arcem7d/middleware/vending-machine/source/oled_task.o (strcat)
d:/arc_gnu/bin/../lib/gcc/arc-elf32/7.1.1/../../../../arc-elf32/lib/em4_dmips\libc.a(lib_a-strcmp.o)
                              obj_emsk_22/gnu_arcem7d/middleware/vending-machine/source/communication_task.o (strcmp)
d:/arc_gnu/bin/../lib/gcc/arc-elf32/7.1.1/../../../../arc-elf32/lib/em4_dmips\libc.a(lib_a-strcpy-bs.o)
                              obj_emsk_22/gnu_arcem7d/middleware/vending-machine/source/oled_task.o (strcpy)
d:/arc_gnu/bin/../lib/gcc/arc-elf32/7.1.1/../../../../arc-elf32/lib/em4_dmips\libc.a(lib_a-strlen-bs-norm.o)
                              obj_emsk_22/gnu_arcem7d/middleware/vending-machine/source/communication_task.o (strlen)
d:/arc_gnu/bin/../lib/gcc/arc-elf32/7.1.1/../../../../arc-elf32/lib/em4_dmips\libc.a(lib_a-strncmp.o)
                              obj_emsk_22/gnu_arcem7d/middleware/lwip/src/core/def.o (strncmp)
d:/arc_gnu/bin/../lib/gcc/arc-elf32/7.1.1/../../../../arc-elf32/lib/em4_dmips\libc.a(lib_a-strncpy-bs.o)
                              obj_emsk_22/gnu_arcem7d/application/./Source/main.o (strncpy)
d:/arc_gnu/bin/../lib/gcc/arc-elf32/7.1.1/../../../../arc-elf32/lib/em4_dmips\libc.a(lib_a-strstr.o)
                              obj_emsk_22/gnu_arcem7d/middleware/mbedtls/library/x509_crt.o (strstr)
d:/arc_gnu/bin/../lib/gcc/arc-elf32/7.1.1/../../../../arc-elf32/lib/em4_dmips\libc.a(lib_a-strtol.o)
                              d:/arc_gnu/bin/../lib/gcc/arc-elf32/7.1.1/../../../../arc-elf32/lib/em4_dmips\libc.a(lib_a-atoi.o) (_strtol_r)
d:/arc_gnu/bin/../lib/gcc/arc-elf32/7.1.1/../../../../arc-elf32/lib/em4_dmips\libc.a(lib_a-svfprintf.o)
                              d:/arc_gnu/bin/../lib/gcc/arc-elf32/7.1.1/../../../../arc-elf32/lib/em4_dmips\libc.a(lib_a-snprintf.o) (_svfprintf_r)
d:/arc_gnu/bin/../lib/gcc/arc-elf32/7.1.1/../../../../arc-elf32/lib/em4_dmips\libc.a(lib_a-sysstat.o)
                              obj_emsk_22/gnu_arcem7d/middleware/mbedtls/library/x509_crt.o (stat)
d:/arc_gnu/bin/../lib/gcc/arc-elf32/7.1.1/../../../../arc-elf32/lib/em4_dmips\libc.a(lib_a-time.o)
                              obj_emsk_22/gnu_arcem7d/board/emsk/drivers/sdcard/emsk_sdcard.o (time)
d:/arc_gnu/bin/../lib/gcc/arc-elf32/7.1.1/../../../../arc-elf32/lib/em4_dmips\libc.a(lib_a-tzcalc_limits.o)
                              d:/arc_gnu/bin/../lib/gcc/arc-elf32/7.1.1/../../../../arc-elf32/lib/em4_dmips\libc.a(lib_a-lcltime_r.o) (__tzcalc_limits)
d:/arc_gnu/bin/../lib/gcc/arc-elf32/7.1.1/../../../../arc-elf32/lib/em4_dmips\libc.a(lib_a-tzlock.o)
                              d:/arc_gnu/bin/../lib/gcc/arc-elf32/7.1.1/../../../../arc-elf32/lib/em4_dmips\libc.a(lib_a-lcltime_r.o) (__tz_lock)
d:/arc_gnu/bin/../lib/gcc/arc-elf32/7.1.1/../../../../arc-elf32/lib/em4_dmips\libc.a(lib_a-tzset.o)
                              d:/arc_gnu/bin/../lib/gcc/arc-elf32/7.1.1/../../../../arc-elf32/lib/em4_dmips\libc.a(lib_a-lcltime_r.o) (_tzset_unlocked)
d:/arc_gnu/bin/../lib/gcc/arc-elf32/7.1.1/../../../../arc-elf32/lib/em4_dmips\libc.a(lib_a-tzset_r.o)
                              d:/arc_gnu/bin/../lib/gcc/arc-elf32/7.1.1/../../../../arc-elf32/lib/em4_dmips\libc.a(lib_a-tzset.o) (_tzset_unlocked_r)
d:/arc_gnu/bin/../lib/gcc/arc-elf32/7.1.1/../../../../arc-elf32/lib/em4_dmips\libc.a(lib_a-tzvars.o)
                              d:/arc_gnu/bin/../lib/gcc/arc-elf32/7.1.1/../../../../arc-elf32/lib/em4_dmips\libc.a(lib_a-tzset_r.o) (_timezone)
d:/arc_gnu/bin/../lib/gcc/arc-elf32/7.1.1/../../../../arc-elf32/lib/em4_dmips\libc.a(lib_a-vfprintf.o)
                              d:/arc_gnu/bin/../lib/gcc/arc-elf32/7.1.1/../../../../arc-elf32/lib/em4_dmips\libc.a(lib_a-fprintf.o) (_vfprintf_r)
d:/arc_gnu/bin/../lib/gcc/arc-elf32/7.1.1/../../../../arc-elf32/lib/em4_dmips\libc.a(lib_a-vsnprintf.o)
                              obj_emsk_22/gnu_arcem7d/middleware/mbedtls/library/debug.o (vsnprintf)
d:/arc_gnu/bin/../lib/gcc/arc-elf32/7.1.1/../../../../arc-elf32/lib/em4_dmips\libc.a(lib_a-writer.o)
                              d:/arc_gnu/bin/../lib/gcc/arc-elf32/7.1.1/../../../../arc-elf32/lib/em4_dmips\libc.a(lib_a-stdio.o) (_write_r)
d:/arc_gnu/bin/../lib/gcc/arc-elf32/7.1.1/../../../../arc-elf32/lib/em4_dmips\libc.a(lib_a-wsetup.o)
                              d:/arc_gnu/bin/../lib/gcc/arc-elf32/7.1.1/../../../../arc-elf32/lib/em4_dmips\libc.a(lib_a-vfprintf.o) (__swsetup_r)
d:/arc_gnu/bin/../lib/gcc/arc-elf32/7.1.1/../../../../arc-elf32/lib/em4_dmips\libc.a(lib_a-closer.o)
                              d:/arc_gnu/bin/../lib/gcc/arc-elf32/7.1.1/../../../../arc-elf32/lib/em4_dmips\libc.a(lib_a-stdio.o) (_close_r)
d:/arc_gnu/bin/../lib/gcc/arc-elf32/7.1.1/../../../../arc-elf32/lib/em4_dmips\libc.a(lib_a-dtoa.o)
                              d:/arc_gnu/bin/../lib/gcc/arc-elf32/7.1.1/../../../../arc-elf32/lib/em4_dmips\libc.a(lib_a-svfprintf.o) (_dtoa_r)
d:/arc_gnu/bin/../lib/gcc/arc-elf32/7.1.1/../../../../arc-elf32/lib/em4_dmips\libc.a(lib_a-flags.o)
                              d:/arc_gnu/bin/../lib/gcc/arc-elf32/7.1.1/../../../../arc-elf32/lib/em4_dmips\libc.a(lib_a-fopen.o) (__sflags)
d:/arc_gnu/bin/../lib/gcc/arc-elf32/7.1.1/../../../../arc-elf32/lib/em4_dmips\libc.a(lib_a-fvwrite.o)
                              d:/arc_gnu/bin/../lib/gcc/arc-elf32/7.1.1/../../../../arc-elf32/lib/em4_dmips\libc.a(lib_a-fwrite.o) (__sfvwrite_r)
d:/arc_gnu/bin/../lib/gcc/arc-elf32/7.1.1/../../../../arc-elf32/lib/em4_dmips\libc.a(lib_a-getenv_r.o)
                              d:/arc_gnu/bin/../lib/gcc/arc-elf32/7.1.1/../../../../arc-elf32/lib/em4_dmips\libc.a(lib_a-tzset_r.o) (_getenv_r)
d:/arc_gnu/bin/../lib/gcc/arc-elf32/7.1.1/../../../../arc-elf32/lib/em4_dmips\libc.a(lib_a-gettimeofdayr.o)
                              d:/arc_gnu/bin/../lib/gcc/arc-elf32/7.1.1/../../../../arc-elf32/lib/em4_dmips\libc.a(lib_a-time.o) (_gettimeofday_r)
d:/arc_gnu/bin/../lib/gcc/arc-elf32/7.1.1/../../../../arc-elf32/lib/em4_dmips\libc.a(lib_a-gettzinfo.o)
                              d:/arc_gnu/bin/../lib/gcc/arc-elf32/7.1.1/../../../../arc-elf32/lib/em4_dmips\libc.a(lib_a-lcltime_r.o) (__gettzinfo)
d:/arc_gnu/bin/../lib/gcc/arc-elf32/7.1.1/../../../../arc-elf32/lib/em4_dmips\libc.a(lib_a-isattyr.o)
                              d:/arc_gnu/bin/../lib/gcc/arc-elf32/7.1.1/../../../../arc-elf32/lib/em4_dmips\libc.a(lib_a-makebuf.o) (_isatty_r)
d:/arc_gnu/bin/../lib/gcc/arc-elf32/7.1.1/../../../../arc-elf32/lib/em4_dmips\libc.a(lib_a-locale.o)
                              d:/arc_gnu/bin/../lib/gcc/arc-elf32/7.1.1/../../../../arc-elf32/lib/em4_dmips\libc.a(lib_a-strtol.o) (__global_locale)
d:/arc_gnu/bin/../lib/gcc/arc-elf32/7.1.1/../../../../arc-elf32/lib/em4_dmips\libc.a(lib_a-localeconv.o)
                              d:/arc_gnu/bin/../lib/gcc/arc-elf32/7.1.1/../../../../arc-elf32/lib/em4_dmips\libc.a(lib_a-svfprintf.o) (_localeconv_r)
d:/arc_gnu/bin/../lib/gcc/arc-elf32/7.1.1/../../../../arc-elf32/lib/em4_dmips\libc.a(lib_a-lseekr.o)
                              d:/arc_gnu/bin/../lib/gcc/arc-elf32/7.1.1/../../../../arc-elf32/lib/em4_dmips\libc.a(lib_a-stdio.o) (_lseek_r)
d:/arc_gnu/bin/../lib/gcc/arc-elf32/7.1.1/../../../../arc-elf32/lib/em4_dmips\libc.a(lib_a-mbtowc_r.o)
                              d:/arc_gnu/bin/../lib/gcc/arc-elf32/7.1.1/../../../../arc-elf32/lib/em4_dmips\libc.a(lib_a-locale.o) (__ascii_mbtowc)
d:/arc_gnu/bin/../lib/gcc/arc-elf32/7.1.1/../../../../arc-elf32/lib/em4_dmips\libc.a(lib_a-mprec.o)
                              d:/arc_gnu/bin/../lib/gcc/arc-elf32/7.1.1/../../../../arc-elf32/lib/em4_dmips\libc.a(lib_a-dtoa.o) (_Balloc)
d:/arc_gnu/bin/../lib/gcc/arc-elf32/7.1.1/../../../../arc-elf32/lib/em4_dmips\libc.a(lib_a-putc.o)
                              d:/arc_gnu/bin/../lib/gcc/arc-elf32/7.1.1/../../../../arc-elf32/lib/em4_dmips\libc.a(lib_a-putchar.o) (_putc_r)
d:/arc_gnu/bin/../lib/gcc/arc-elf32/7.1.1/../../../../arc-elf32/lib/em4_dmips\libc.a(lib_a-readr.o)
                              d:/arc_gnu/bin/../lib/gcc/arc-elf32/7.1.1/../../../../arc-elf32/lib/em4_dmips\libc.a(lib_a-stdio.o) (_read_r)
d:/arc_gnu/bin/../lib/gcc/arc-elf32/7.1.1/../../../../arc-elf32/lib/em4_dmips\libc.a(lib_a-reallocr.o)
                              d:/arc_gnu/bin/../lib/gcc/arc-elf32/7.1.1/../../../../arc-elf32/lib/em4_dmips\libc.a(lib_a-fvwrite.o) (_realloc_r)
d:/arc_gnu/bin/../lib/gcc/arc-elf32/7.1.1/../../../../arc-elf32/lib/em4_dmips\libc.a(lib_a-siscanf.o)
                              d:/arc_gnu/bin/../lib/gcc/arc-elf32/7.1.1/../../../../arc-elf32/lib/em4_dmips\libc.a(lib_a-tzset_r.o) (siscanf)
d:/arc_gnu/bin/../lib/gcc/arc-elf32/7.1.1/../../../../arc-elf32/lib/em4_dmips\libc.a(lib_a-statr.o)
                              d:/arc_gnu/bin/../lib/gcc/arc-elf32/7.1.1/../../../../arc-elf32/lib/em4_dmips\libc.a(lib_a-sysstat.o) (_stat_r)
d:/arc_gnu/bin/../lib/gcc/arc-elf32/7.1.1/../../../../arc-elf32/lib/em4_dmips\libc.a(lib_a-strchr-bs-norm.o)
                              d:/arc_gnu/bin/../lib/gcc/arc-elf32/7.1.1/../../../../arc-elf32/lib/em4_dmips\libc.a(lib_a-strstr.o) (strchr)
d:/arc_gnu/bin/../lib/gcc/arc-elf32/7.1.1/../../../../arc-elf32/lib/em4_dmips\libc.a(lib_a-strtoul.o)
                              d:/arc_gnu/bin/../lib/gcc/arc-elf32/7.1.1/../../../../arc-elf32/lib/em4_dmips\libc.a(lib_a-tzset_r.o) (strtoul)
d:/arc_gnu/bin/../lib/gcc/arc-elf32/7.1.1/../../../../arc-elf32/lib/em4_dmips\libc.a(lib_a-svfiprintf.o)
                              d:/arc_gnu/bin/../lib/gcc/arc-elf32/7.1.1/../../../../arc-elf32/lib/em4_dmips\libc.a(lib_a-svfprintf.o) (__ssprint_r)
d:/arc_gnu/bin/../lib/gcc/arc-elf32/7.1.1/../../../../arc-elf32/lib/em4_dmips\libc.a(lib_a-svfiscanf.o)
                              d:/arc_gnu/bin/../lib/gcc/arc-elf32/7.1.1/../../../../arc-elf32/lib/em4_dmips\libc.a(lib_a-siscanf.o) (__ssvfiscanf_r)
d:/arc_gnu/bin/../lib/gcc/arc-elf32/7.1.1/../../../../arc-elf32/lib/em4_dmips\libc.a(lib_a-ungetc.o)
                              d:/arc_gnu/bin/../lib/gcc/arc-elf32/7.1.1/../../../../arc-elf32/lib/em4_dmips\libc.a(lib_a-svfiscanf.o) (__submore)
d:/arc_gnu/bin/../lib/gcc/arc-elf32/7.1.1/../../../../arc-elf32/lib/em4_dmips\libc.a(lib_a-vfiprintf.o)
                              d:/arc_gnu/bin/../lib/gcc/arc-elf32/7.1.1/../../../../arc-elf32/lib/em4_dmips\libc.a(lib_a-vfprintf.o) (__sprint_r)
d:/arc_gnu/bin/../lib/gcc/arc-elf32/7.1.1/../../../../arc-elf32/lib/em4_dmips\libc.a(lib_a-wbuf.o)
                              d:/arc_gnu/bin/../lib/gcc/arc-elf32/7.1.1/../../../../arc-elf32/lib/em4_dmips\libc.a(lib_a-putc.o) (__swbuf_r)
d:/arc_gnu/bin/../lib/gcc/arc-elf32/7.1.1/../../../../arc-elf32/lib/em4_dmips\libc.a(lib_a-wctomb_r.o)
                              d:/arc_gnu/bin/../lib/gcc/arc-elf32/7.1.1/../../../../arc-elf32/lib/em4_dmips\libc.a(lib_a-locale.o) (__ascii_wctomb)
d:/arc_gnu/bin/../lib/gcc/arc-elf32/7.1.1/../../../../arc-elf32/lib/em4_dmips\libc.a(lib_a-ctype_.o)
                              d:/arc_gnu/bin/../lib/gcc/arc-elf32/7.1.1/../../../../arc-elf32/lib/em4_dmips\libc.a(lib_a-locale.o) (_ctype_)
d:/arc_gnu/bin/../lib/gcc/arc-elf32/7.1.1/../../../../arc-elf32/lib/em4_dmips\libc.a(lib_a-environ.o)
                              d:/arc_gnu/bin/../lib/gcc/arc-elf32/7.1.1/../../../../arc-elf32/lib/em4_dmips\libc.a(lib_a-getenv_r.o) (environ)
d:/arc_gnu/bin/../lib/gcc/arc-elf32/7.1.1/../../../../arc-elf32/lib/em4_dmips\libc.a(lib_a-envlock.o)
                              d:/arc_gnu/bin/../lib/gcc/arc-elf32/7.1.1/../../../../arc-elf32/lib/em4_dmips\libc.a(lib_a-getenv_r.o) (__env_lock)
d:/arc_gnu/bin/../lib/gcc/arc-elf32/7.1.1/../../../../arc-elf32/lib/em4_dmips\libc.a(lib_a-fputwc.o)
                              d:/arc_gnu/bin/../lib/gcc/arc-elf32/7.1.1/../../../../arc-elf32/lib/em4_dmips\libc.a(lib_a-vfiprintf.o) (_fputwc_r)
d:/arc_gnu/bin/../lib/gcc/arc-elf32/7.1.1/../../../../arc-elf32/lib/em4_dmips\libc.a(lib_a-iswspace.o)
                              d:/arc_gnu/bin/../lib/gcc/arc-elf32/7.1.1/../../../../arc-elf32/lib/em4_dmips\libc.a(lib_a-svfiscanf.o) (iswspace)
d:/arc_gnu/bin/../lib/gcc/arc-elf32/7.1.1/../../../../arc-elf32/lib/em4_dmips\libc.a(lib_a-mbrtowc.o)
                              d:/arc_gnu/bin/../lib/gcc/arc-elf32/7.1.1/../../../../arc-elf32/lib/em4_dmips\libc.a(lib_a-svfiscanf.o) (_mbrtowc_r)
d:/arc_gnu/bin/../lib/gcc/arc-elf32/7.1.1/../../../../arc-elf32/lib/em4_dmips\libc.a(lib_a-sccl.o)
                              d:/arc_gnu/bin/../lib/gcc/arc-elf32/7.1.1/../../../../arc-elf32/lib/em4_dmips\libc.a(lib_a-svfiscanf.o) (__sccl)
d:/arc_gnu/bin/../lib/gcc/arc-elf32/7.1.1/../../../../arc-elf32/lib/em4_dmips\libc.a(lib_a-strtoll.o)
                              d:/arc_gnu/bin/../lib/gcc/arc-elf32/7.1.1/../../../../arc-elf32/lib/em4_dmips\libc.a(lib_a-svfiscanf.o) (_strtoll_r)
d:/arc_gnu/bin/../lib/gcc/arc-elf32/7.1.1/../../../../arc-elf32/lib/em4_dmips\libc.a(lib_a-strtoull.o)
                              d:/arc_gnu/bin/../lib/gcc/arc-elf32/7.1.1/../../../../arc-elf32/lib/em4_dmips\libc.a(lib_a-svfiscanf.o) (_strtoull_r)
d:/arc_gnu/bin/../lib/gcc/arc-elf32/7.1.1/../../../../arc-elf32/lib/em4_dmips\libc.a(lib_a-wcrtomb.o)
                              d:/arc_gnu/bin/../lib/gcc/arc-elf32/7.1.1/../../../../arc-elf32/lib/em4_dmips\libc.a(lib_a-fputwc.o) (_wcrtomb_r)
d:/arc_gnu/bin/../lib/gcc/arc-elf32/7.1.1/em4_dmips\libgcc.a(_udivdi3.o)
                              obj_emsk_22/gnu_arcem7d/board/emsk/common/emsk_timer.o (__udivdi3)
d:/arc_gnu/bin/../lib/gcc/arc-elf32/7.1.1/em4_dmips\libgcc.a(_umoddi3.o)
                              d:/arc_gnu/bin/../lib/gcc/arc-elf32/7.1.1/../../../../arc-elf32/lib/em4_dmips\libc.a(lib_a-svfprintf.o) (__umoddi3)
d:/arc_gnu/bin/../lib/gcc/arc-elf32/7.1.1/em4_dmips\libgcc.a(fp-bit.o)
                              obj_emsk_22/gnu_arcem7d/middleware/vending-machine/source/temp_task.o (__fixsfsi)
d:/arc_gnu/bin/../lib/gcc/arc-elf32/7.1.1/em4_dmips\libgcc.a(dp-bit.o)
                              d:/arc_gnu/bin/../lib/gcc/arc-elf32/7.1.1/../../../../arc-elf32/lib/em4_dmips\libc.a(lib_a-dtoa.o) (__adddf3)
obj_emsk_22/gnu_arcem7d/library/clib/embarc_sbrk.o
                              d:/arc_gnu/bin/../lib/gcc/arc-elf32/7.1.1/../../../../arc-elf32/lib/em4_dmips\libc.a(lib_a-sbrkr.o) (_sbrk)
obj_emsk_22/gnu_arcem7d/library/clib/embarc_syscalls.o
                              d:/arc_gnu/bin/../lib/gcc/arc-elf32/7.1.1/../../../../arc-elf32/lib/em4_dmips\libc.a(lib_a-openr.o) (_open)
obj_emsk_22/gnu_arcem7d/library/clib/embarc_target.o
                              obj_emsk_22/gnu_arcem7d/library/clib/embarc_syscalls.o (get_build_timedate)
d:/arc_gnu/bin/../lib/gcc/arc-elf32/7.1.1/../../../../arc-elf32/lib/em4_dmips\libc.a(lib_a-mktime.o)
                              obj_emsk_22/gnu_arcem7d/library/clib/embarc_target.o (mktime)
d:/arc_gnu/bin/../lib/gcc/arc-elf32/7.1.1/../../../../arc-elf32/lib/em4_dmips\libc.a(lib_a-sscanf.o)
                              obj_emsk_22/gnu_arcem7d/library/clib/embarc_target.o (sscanf)
d:/arc_gnu/bin/../lib/gcc/arc-elf32/7.1.1/../../../../arc-elf32/lib/em4_dmips\libc.a(lib_a-svfscanf.o)
                              d:/arc_gnu/bin/../lib/gcc/arc-elf32/7.1.1/../../../../arc-elf32/lib/em4_dmips\libc.a(lib_a-sscanf.o) (__ssvfscanf_r)
d:/arc_gnu/bin/../lib/gcc/arc-elf32/7.1.1/../../../../arc-elf32/lib/em4_dmips\libc.a(lib_a-div.o)
                              d:/arc_gnu/bin/../lib/gcc/arc-elf32/7.1.1/../../../../arc-elf32/lib/em4_dmips\libc.a(lib_a-mktime.o) (div)
d:/arc_gnu/bin/../lib/gcc/arc-elf32/7.1.1/../../../../arc-elf32/lib/em4_dmips\libc.a(lib_a-sf_nan.o)
                              d:/arc_gnu/bin/../lib/gcc/arc-elf32/7.1.1/../../../../arc-elf32/lib/em4_dmips\libc.a(lib_a-svfscanf.o) (nanf)
d:/arc_gnu/bin/../lib/gcc/arc-elf32/7.1.1/../../../../arc-elf32/lib/em4_dmips\libc.a(lib_a-strtod.o)
                              d:/arc_gnu/bin/../lib/gcc/arc-elf32/7.1.1/../../../../arc-elf32/lib/em4_dmips\libc.a(lib_a-svfscanf.o) (_strtod_r)
d:/arc_gnu/bin/../lib/gcc/arc-elf32/7.1.1/../../../../arc-elf32/lib/em4_dmips\libc.a(lib_a-gdtoa-gethex.o)
                              d:/arc_gnu/bin/../lib/gcc/arc-elf32/7.1.1/../../../../arc-elf32/lib/em4_dmips\libc.a(lib_a-strtod.o) (__gethex)
d:/arc_gnu/bin/../lib/gcc/arc-elf32/7.1.1/../../../../arc-elf32/lib/em4_dmips\libc.a(lib_a-gdtoa-hexnan.o)
                              d:/arc_gnu/bin/../lib/gcc/arc-elf32/7.1.1/../../../../arc-elf32/lib/em4_dmips\libc.a(lib_a-strtod.o) (__match)

Allocating common symbols
Common symbol       size              file

memp_memory_NETDB_base
                    0x137             obj_emsk_22/gnu_arcem7d/middleware/lwip/src/core/memp.o
dw_spi_0            0x70              obj_emsk_22/gnu_arcem7d/board/emsk/drivers/ip/designware/spi/dw_spi_obj.o
netif_list          0x4               obj_emsk_22/gnu_arcem7d/middleware/lwip/src/core/netif.o
mbedtls_cipher_supported
                    0xc0              obj_emsk_22/gnu_arcem7d/middleware/mbedtls/library/cipher_wrap.o
lock_tcpip_core     0x4               obj_emsk_22/gnu_arcem7d/middleware/lwip/src/api/tcpip.o
ip_data             0x18              obj_emsk_22/gnu_arcem7d/middleware/lwip/src/core/ip.o
xfunc_in            0x4               obj_emsk_22/gnu_arcem7d/middleware/common/xprintf/xprintf.o
dw_spi_1            0x70              obj_emsk_22/gnu_arcem7d/board/emsk/drivers/ip/designware/spi/dw_spi_obj.o
memp_memory_NETBUF_base
                    0x23              obj_emsk_22/gnu_arcem7d/middleware/lwip/src/core/memp.o
tcp_active_pcbs_changed
                    0x1               obj_emsk_22/gnu_arcem7d/middleware/lwip/src/core/tcp.o
tcp_active_pcbs     0x4               obj_emsk_22/gnu_arcem7d/middleware/lwip/src/core/tcp.o
udp_pcbs            0x4               obj_emsk_22/gnu_arcem7d/middleware/lwip/src/core/udp.o
xMainQueue          0x4               obj_emsk_22/gnu_arcem7d/board/board.o
u8g                 0x3c              obj_emsk_22/gnu_arcem7d/middleware/vending-machine/source/oled_task.o
dw_spi_0_ctrl       0x3c              obj_emsk_22/gnu_arcem7d/board/emsk/drivers/ip/designware/spi/dw_spi_obj.o
memp_memory_TCPIP_MSG_INPKT_base
                    0x103             obj_emsk_22/gnu_arcem7d/middleware/lwip/src/core/memp.o
xCommunicationQueue
                    0x4               obj_emsk_22/gnu_arcem7d/board/board.o
xOledQueue          0x4               obj_emsk_22/gnu_arcem7d/board/board.o
tcp_ticks           0x4               obj_emsk_22/gnu_arcem7d/middleware/lwip/src/core/tcp.o
tcp_listen_pcbs     0x4               obj_emsk_22/gnu_arcem7d/middleware/lwip/src/core/tcp.o
memp_memory_RAW_PCB_base
                    0x73              obj_emsk_22/gnu_arcem7d/middleware/lwip/src/core/memp.o
memp_memory_TCP_SEG_base
                    0x143             obj_emsk_22/gnu_arcem7d/middleware/lwip/src/core/memp.o
dw_uart_0           0x5c              obj_emsk_22/gnu_arcem7d/board/emsk/drivers/ip/designware/uart/dw_uart_obj.o
dw_iic_0_ctrl       0x60              obj_emsk_22/gnu_arcem7d/board/emsk/drivers/ip/designware/iic/dw_iic_obj.o
xfunc_out           0x4               obj_emsk_22/gnu_arcem7d/middleware/common/xprintf/xprintf.o
stdio_uart_obj      0x4               obj_emsk_22/gnu_arcem7d/library/clib/embarc_syscalls.o
memp_memory_PBUF_POOL_base
                    0x11d03           obj_emsk_22/gnu_arcem7d/middleware/lwip/src/core/memp.o
xVMQueue            0x4               obj_emsk_22/gnu_arcem7d/board/board.o
memp_memory_FRAG_PBUF_base
                    0x16b             obj_emsk_22/gnu_arcem7d/middleware/lwip/src/core/memp.o
memp_memory_TCPIP_MSG_API_base
                    0x103             obj_emsk_22/gnu_arcem7d/middleware/lwip/src/core/memp.o
dw_iic_1            0x68              obj_emsk_22/gnu_arcem7d/board/emsk/drivers/ip/designware/iic/dw_iic_obj.o
h_errno             0x4               obj_emsk_22/gnu_arcem7d/middleware/lwip/src/api/netdb.o
tcp_input_pcb       0x4               obj_emsk_22/gnu_arcem7d/middleware/lwip/src/core/tcp_in.o
exc_nest_count      0x4               obj_emsk_22/gnu_arcem7d/arc/arc_exception.o
opt                 0xa8              obj_emsk_22/gnu_arcem7d/middleware/vending-machine/source/communication_task.o
dhcp_rx_options_given
                    0xa               obj_emsk_22/gnu_arcem7d/middleware/lwip/src/core/ipv4/dhcp.o
memp_memory_PBUF_base
                    0x1e3             obj_emsk_22/gnu_arcem7d/middleware/lwip/src/core/memp.o
tcp_bound_pcbs      0x4               obj_emsk_22/gnu_arcem7d/middleware/lwip/src/core/tcp.o
dw_uart_2           0x5c              obj_emsk_22/gnu_arcem7d/board/emsk/drivers/ip/designware/uart/dw_uart_obj.o
memp_memory_TCP_PCB_LISTEN_base
                    0x103             obj_emsk_22/gnu_arcem7d/middleware/lwip/src/core/memp.o
memp_memory_REASSDATA_base
                    0xa3              obj_emsk_22/gnu_arcem7d/middleware/lwip/src/core/memp.o
dw_spi_1_ctrl       0x3c              obj_emsk_22/gnu_arcem7d/board/emsk/drivers/ip/designware/spi/dw_spi_obj.o
memp_memory_UDP_PCB_base
                    0x83              obj_emsk_22/gnu_arcem7d/middleware/lwip/src/core/memp.o
dw_uart_1           0x5c              obj_emsk_22/gnu_arcem7d/board/emsk/drivers/ip/designware/uart/dw_uart_obj.o
pbuf_free_ooseq_pending
                    0x1               obj_emsk_22/gnu_arcem7d/middleware/lwip/src/core/pbuf.o
dw_iic_0            0x68              obj_emsk_22/gnu_arcem7d/board/emsk/drivers/ip/designware/iic/dw_iic_obj.o
netconn_aborted     0x1               obj_emsk_22/gnu_arcem7d/middleware/lwip/src/api/api_msg.o
xNumPadQueue        0x4               obj_emsk_22/gnu_arcem7d/board/board.o
xTempQueue          0x4               obj_emsk_22/gnu_arcem7d/board/board.o
tcp_tw_pcbs         0x4               obj_emsk_22/gnu_arcem7d/middleware/lwip/src/core/tcp.o
memp_memory_NETCONN_base
                    0x233             obj_emsk_22/gnu_arcem7d/middleware/lwip/src/core/memp.o
netif_default       0x4               obj_emsk_22/gnu_arcem7d/middleware/lwip/src/core/netif.o
dhcp_rx_options_val
                    0x28              obj_emsk_22/gnu_arcem7d/middleware/lwip/src/core/ipv4/dhcp.o
memp_memory_TCP_PCB_base
                    0x30f             obj_emsk_22/gnu_arcem7d/middleware/lwip/src/core/memp.o
memp_memory_SYS_TIMEOUT_base
                    0x143             obj_emsk_22/gnu_arcem7d/middleware/lwip/src/core/memp.o
context_switch_reqflg
                    0x4               obj_emsk_22/gnu_arcem7d/os/freertos/portable/synopsys/arc/port.o
ram_heap            0x2013            obj_emsk_22/gnu_arcem7d/middleware/lwip/src/core/mem.o
dw_iic_1_ctrl       0x60              obj_emsk_22/gnu_arcem7d/board/emsk/drivers/ip/designware/iic/dw_iic_obj.o
spi_mutex           0x4               obj_emsk_22/gnu_arcem7d/board/board.o
xDCmotorQueue       0x4               obj_emsk_22/gnu_arcem7d/board/board.o

Memory Configuration

Name             Origin             Length             Attributes
ICCM             0x00000000         0x00040000
DCCM             0x80000000         0x00020000
EXT_RAM          0x10000000         0x08000000
*default*        0x00000000         0xffffffff

Linker script and memory map

LOAD d:/arc_gnu/bin/../lib/gcc/arc-elf32/7.1.1/../../../../arc-elf32/lib/em4_dmips\libm.a

.init           0x10000000      0x1b0
                0x10000000                _f_init = .
 *(.init_vector)
 .init_vector   0x10000000        0x4 obj_emsk_22/gnu_arcem7d/arc/startup/arc_startup.o
 *(.init_bootstrap)
 .init_bootstrap
                0x10000004      0x1ac obj_emsk_22/gnu_arcem7d/arc/startup/arc_startup.o
                0x10000004                _arc_reset
                0x10000004                _start
                0x1000019c                _exit_loop
                0x1000019c                _exit_halt
                0x100001b0                _e_init = .

.vector         0x10000400      0x400
                0x10000400                _f_vector = .
 *(.vector)
 .vector        0x10000400      0x400 obj_emsk_22/gnu_arcem7d/arc/arc_exception.o
                0x10000400                exc_entry_table
                0x10000800                _e_vector = .

.text           0x10000800    0xb3d44
                0x10000800                _f_text = .
 *(.text .text.* .gnu.linkonce.t.*)
 .text          0x10000800      0xcd0 obj_emsk_22/gnu_arcem7d/application/./Source/main.o
                0x10000800                _Main_Enqueue
                0x10000898                _Wifi_Main_Enqueue
                0x100009f4                main
 .text          0x100014d0      0x344 obj_emsk_22/gnu_arcem7d/board/board.o
                0x10001634                board_main
 .text          0x10001814      0x100 obj_emsk_22/gnu_arcem7d/arc/startup/arc_cxx_support.o
                0x10001814                __do_global_ctors_aux
                0x10001858                __do_global_dtors_aux
                0x100018a8                __cxa_atexit
                0x100018c8                __do_init_array_aux
                0x1000190c                __cxa_pure_virtual
 .text          0x10001914        0x0 obj_emsk_22/gnu_arcem7d/arc/startup/arc_startup.o
 .text          0x10001914       0x20 obj_emsk_22/gnu_arcem7d/board/emsk/common/emsk_init.o
                0x10001914                board_init
 .text          0x10001934      0x300 obj_emsk_22/gnu_arcem7d/board/emsk/drivers/mux/mux.o
                0x10001934                set_pmod_mux
                0x10001958                get_pmod_mux
                0x10001970                set_spi_map
                0x10001998                set_uart_map
                0x100019c0                io_mikro_config
                0x100019dc                io_arduino_config_spi
                0x100019f8                io_arduino_config_uart
                0x10001a14                io_arduino_config_i2c
                0x10001a30                io_arduino_config_ad
                0x10001a50                io_arduino_config_pwm
                0x10001a70                io_arduino_config_gpio
                0x10001a90                io_pmod_config
                0x10001bdc                io_mux_init
 .text          0x10001c34      0x7cc obj_emsk_22/gnu_arcem7d/board/emsk/drivers/pmwifi/pmwifi.o
                0x1000239c                wnic_get_dev
                0x100023e8                pmwifi_all_install
 .text          0x10002400      0x1dc obj_emsk_22/gnu_arcem7d/middleware/common/console_io.o
                0x10002400                console_putchar
                0x10002444                console_putstr
                0x1000248c                console_getchar
                0x100024d4                console_getstr
                0x10002544                xprintf_setup
 .text          0x100025dc      0xa58 obj_emsk_22/gnu_arcem7d/middleware/common/xprintf/xprintf.o
                0x100025dc                xputc
                0x10002648                xputs
                0x10002680                xfputs
                0x100026e0                xvprintf
                0x10002a8c                xprintf
                0x10002ae0                xsprintf
                0x10002b54                xfprintf
                0x10002bcc                put_dump
                0x10002d20                xgets
                0x10002e08                xfgets
                0x10002e64                xatoi
 .text          0x10003034     0x67f4 obj_emsk_22/gnu_arcem7d/middleware/fatfs/src/ff.o
                0x100034bc                clust2sect
                0x10003510                get_fat
                0x100036e8                put_fat
                0x1000611c                f_mount
                0x100061d8                f_open
                0x10006540                f_read
                0x100068ac                f_write
                0x10006c9c                f_sync
                0x10006e54                f_close
                0x10006ea4                f_chdir
                0x10006f70                f_getcwd
                0x100071f0                f_lseek
                0x10007554                f_opendir
                0x1000765c                f_closedir
                0x10007698                f_readdir
                0x1000775c                f_stat
                0x100077f4                f_getfree
                0x10007a14                f_truncate
                0x10007bd0                f_unlink
                0x10007d80                f_mkdir
                0x10008078                f_chmod
                0x1000817c                f_rename
                0x100083ac                f_utime
                0x100084b4                f_mkfs
                0x100090f4                f_gets
                0x10009268                f_putc
                0x100092f8                f_puts
                0x1000939c                f_printf
 .text          0x10009828      0x1e8 obj_emsk_22/gnu_arcem7d/middleware/fatfs/src/ff_unicode.o
                0x10009828                ff_convert
                0x10009938                ff_wtoupper
 .text          0x10009a10      0x820 obj_emsk_22/gnu_arcem7d/middleware/lwip-contrib/ports/arc/lwip_pmwifi.o
                0x1000a0cc                lwip_pmwifi_init
                0x1000a218                lwip_pmwifi_isup
 .text          0x1000a230      0x444 obj_emsk_22/gnu_arcem7d/middleware/lwip-contrib/ports/arc/netif/pmwifi_netif.o
                0x1000a3f4                pmwifi_on_input
                0x1000a56c                pmwifi_if_init
 .text          0x1000a674      0x784 obj_emsk_22/gnu_arcem7d/middleware/lwip-contrib/ports/arc/sys_arch/freertos/sys_arch.o
                0x1000a690                sys_mutex_new
                0x1000a6dc                sys_mutex_lock
                0x1000a724                sys_mutex_unlock
                0x1000a764                sys_mutex_free
                0x1000a79c                sys_sem_new
                0x1000a83c                sys_sem_signal
                0x1000a8a0                sys_arch_sem_wait
                0x1000a974                sys_sem_free
                0x1000a9ac                sys_mbox_new
                0x1000aa04                sys_mbox_post
                0x1000aa54                sys_mbox_trypost
                0x1000aaf8                sys_arch_mbox_fetch
                0x1000abf0                sys_arch_mbox_tryfetch
                0x1000ac9c                sys_mbox_free
                0x1000acec                sys_thread_new
                0x1000ad7c                sys_init
                0x1000ad8c                sys_jiffies
                0x1000ada4                sys_now
                0x1000adbc                sys_arch_protect
                0x1000add4                sys_arch_unprotect
 .text          0x1000adf8       0x4c obj_emsk_22/gnu_arcem7d/middleware/vending-machine/source/led_task.o
                0x1000adf8                LED_task
 .text          0x1000ae44      0x188 obj_emsk_22/gnu_arcem7d/middleware/vending-machine/source/temp_task.o
                0x1000af20                temp_task
 .text          0x1000afcc      0x198 obj_emsk_22/gnu_arcem7d/middleware/vending-machine/source/vm_task.o
                0x1000afcc                enQueue
                0x1000b02c                vm_task
 .text          0x1000b164      0xae4 obj_emsk_22/gnu_arcem7d/middleware/vending-machine/source/oled_task.o
                0x1000b164                u8g_prepare
                0x1000b1a4                u8g_box_frame
                0x1000b24c                u8g_string
                0x1000b2dc                u8g_line
                0x1000b394                u8g_ascii_1
                0x1000b444                u8g_ascii_2
                0x1000b4f8                u8g_test
                0x1000b5b4                u8g_cover
                0x1000b634                u8g_recommand
                0x1000b6cc                u8g_check
                0x1000b770                u8g_confirm
                0x1000b7fc                u8g_input
                0x1000b8c8                draw
                0x1000b940                oled_task
 .text          0x1000bc48      0x4f8 obj_emsk_22/gnu_arcem7d/middleware/vending-machine/source/numpad_task.o
                0x1000bd1c                numpad_task
 .text          0x1000c140     0x2780 obj_emsk_22/gnu_arcem7d/middleware/vending-machine/source/communication_task.o
                0x1000c8c8                communication_task
 .text          0x1000e8c0       0x18 obj_emsk_22/gnu_arcem7d/os/freertos/portable/synopsys/arc/arc_freertos_exceptions.o
                0x1000e8c0                freertos_exc_init
 .text          0x1000e8d8     0x22c4 obj_emsk_22/gnu_arcem7d/os/freertos/tasks.o
                0x1000e8d8                xTaskCreate
                0x1000ec6c                vTaskDelete
                0x1000ed90                vTaskDelayUntil
                0x1000ee60                vTaskDelay
                0x1000eeac                uxTaskPriorityGet
                0x1000ef30                uxTaskPriorityGetFromISR
                0x1000ef74                vTaskPrioritySet
                0x1000f12c                vTaskSuspend
                0x1000f2e0                vTaskResume
                0x1000f3d0                xTaskResumeFromISR
                0x1000f498                vTaskStartScheduler
                0x1000f4fc                vTaskEndScheduler
                0x1000f520                vTaskSuspendAll
                0x1000f540                xTaskResumeAll
                0x1000f6cc                xTaskGetTickCount
                0x1000f734                xTaskGetTickCountFromISR
                0x1000f75c                uxTaskGetNumberOfTasks
                0x1000f774                pcTaskGetName
                0x1000f7ac                xTaskIncrementTick
                0x1000f970                vTaskSwitchContext
                0x1000fa84                vTaskPlaceOnEventList
                0x1000fac0                vTaskPlaceOnUnorderedEventList
                0x1000fb18                xTaskRemoveFromEventList
                0x1000fbe8                xTaskRemoveFromUnorderedEventList
                0x1000fca8                vTaskSetTimeOutState
                0x1000fcdc                xTaskCheckForTimeOut
                0x1000fdd4                vTaskMissedYield
                0x1000fe10                vTaskSetThreadLocalStoragePointer
                0x1000fe68                pvTaskGetThreadLocalStoragePointer
                0x10010080                uxTaskGetStackHighWaterMark
                0x10010158                xTaskGetCurrentTaskHandle
                0x1001017c                vTaskPriorityInherit
                0x10010270                xTaskPriorityDisinherit
                0x1001033c                uxTaskResetEventItemValue
                0x10010378                pvTaskIncrementMutexHeldCount
                0x100103a8                ulTaskNotifyTake
                0x100104d0                xTaskNotifyWait
                0x10010630                xTaskGenericNotify
                0x100107a8                xTaskGenericNotifyFromISR
                0x10010920                vTaskNotifyGiveFromISR
                0x10010a18                xTaskNotifyStateClear
 .text          0x10010b9c      0x1f0 obj_emsk_22/gnu_arcem7d/os/freertos/list.o
                0x10010b9c                vListInitialise
                0x10010bec                vListInitialiseItem
                0x10010c0c                vListInsertEnd
                0x10010c74                vListInsert
                0x10010d18                uxListRemove
 .text          0x10010d8c     0x1148 obj_emsk_22/gnu_arcem7d/os/freertos/queue.o
                0x10010d8c                xQueueGenericReset
                0x10010ea4                xQueueGenericCreate
                0x10010fd8                xQueueCreateMutex
                0x10011020                xQueueGiveMutexRecursive
                0x10011098                xQueueTakeMutexRecursive
                0x1001111c                xQueueCreateCountingSemaphore
                0x10011160                xQueueGenericSend
                0x100113a4                xQueueGenericSendFromISR
                0x1001146c                xQueueGiveFromISR
                0x10011528                xQueueGenericReceive
                0x10011820                xQueueReceiveFromISR
                0x100118e8                xQueuePeekFromISR
                0x10011954                uxQueueMessagesWaiting
                0x100119bc                uxQueueSpacesAvailable
                0x10011a34                uxQueueMessagesWaitingFromISR
                0x10011a58                vQueueDelete
                0x10011de8                xQueueIsQueueEmptyFromISR
                0x10011e9c                xQueueIsQueueFullFromISR
 .text          0x10011ed4      0x300 obj_emsk_22/gnu_arcem7d/arc/arc_timer.o
                0x10011ed4                timer_present
                0x10011f44                timer_start
                0x10012004                timer_stop
                0x100120a4                timer_current
                0x1001212c                timer_int_clear
                0x100121b0                timer_init
 .text          0x100121d4      0x840 obj_emsk_22/gnu_arcem7d/arc/arc_cache.o
                0x100122e0                icache_invalidate_mlines
                0x10012394                icache_lock_mlines
                0x1001245c                icache_direct_write
                0x100124bc                icache_direct_read
                0x1001251c                icache_indirect_read
                0x10012590                dcache_invalidate_mlines
                0x10012650                dcache_flush_mlines
                0x10012710                dcache_lock_mlines
                0x100127dc                dcache_direct_write
                0x1001283c                dcache_direct_read
                0x1001289c                dcache_indirect_read
                0x10012910                arc_cache_init
 .text          0x10012a14      0x984 obj_emsk_22/gnu_arcem7d/arc/arc_exception.o
                0x10012df0                exc_int_init
                0x10012eb0                exc_entry_install
                0x10012f5c                exc_entry_get
                0x10012f8c                exc_handler_install
                0x10012fd0                exc_handler_get
                0x10013000                int_disable
                0x1001303c                int_enable
                0x10013078                int_enabled
                0x100130b4                int_ipm_get
                0x100130d0                int_ipm_set
                0x1001311c                int_pri_get
                0x1001315c                int_pri_set
                0x100131bc                int_secure_set
                0x10013200                int_probe
                0x1001323c                int_sw_trigger
                0x10013278                int_level_config
                0x100132bc                cpu_lock
                0x100132d4                cpu_unlock
                0x100132ec                cpu_lock_save
                0x10013304                cpu_unlock_restore
                0x10013328                int_handler_install
                0x10013364                int_handler_get
 .text          0x10013398      0x358 obj_emsk_22/gnu_arcem7d/arc/arc_exc_asm.o
                0x100135b4                exc_entry_firq
 .text          0x100136f0       0x10 obj_emsk_22/gnu_arcem7d/library/clib/embarc_misc.o
                0x100136f0                gnu_printf_setup
 .text          0x10013700      0x84c obj_emsk_22/gnu_arcem7d/board/emsk/drivers/ip/designware/gpio/dw_gpio_obj.o
                0x10013eb8                gpio_get_dev
                0x10013f28                dw_gpio_all_install
 .text          0x10013f4c      0x5b8 obj_emsk_22/gnu_arcem7d/board/emsk/drivers/ip/designware/uart/dw_uart_obj.o
                0x10014480                uart_get_dev
                0x100144e4                dw_uart_all_install
 .text          0x10014504     0x1094 obj_emsk_22/gnu_arcem7d/device/ip/designware/gpio/dw_gpio.o
                0x10014ac0                dw_gpio_open
                0x10014c38                dw_gpio_close
                0x10014d70                dw_gpio_read
                0x10014e48                dw_gpio_write
                0x10014f00                dw_gpio_control
                0x10015320                dw_gpio_isr_handler
                0x10015464                dw_gpio_bit_isr_handler
 .text          0x10015598     0x1658 obj_emsk_22/gnu_arcem7d/device/ip/designware/uart/dw_uart.o
                0x10015fa8                dw_uart_open
                0x10016180                dw_uart_close
                0x1001628c                dw_uart_control
                0x10016748                dw_uart_write
                0x10016870                dw_uart_read
                0x1001699c                dw_uart_isr
 .text          0x10016bf0      0x484 obj_emsk_22/gnu_arcem7d/device/peripheral/sensor/temperature/adt7420/adt7420.o
                0x10016d88                adt7420_sensor_init
                0x10016e40                adt7420_sensor_deinit
                0x10016ea4                adt7420_sensor_mode
                0x10016f1c                adt7420_sensor_resolution
                0x10016f8c                adt7420_sensor_read
 .text          0x10017074     0x1fa4 obj_emsk_22/gnu_arcem7d/device/peripheral/wifi/rw009/rw009.o
                0x10017cc4                rw009_wnic_get_info
                0x10017d2c                rw009_wnic_control
                0x10017d94                rw009_wnic_init
                0x10017ed0                rw009_poll_init_status
                0x10017f1c                rw009_poll_busy_status
                0x10017f84                rw009_set_network_type
                0x10018018                rw009_set_macaddr
                0x100180bc                rw009_get_macaddr
                0x1001814c                rw009_start_scan
                0x10018250                rw009_stop_scan
                0x100182e4                rw009_poll_scan_status
                0x1001834c                rw009_get_scan_result_cnt
                0x100183c8                rw009_get_scan_result
                0x10018518                rw009_wnic_connect
                0x100186d4                rw009_poll_conn_status
                0x10018768                rw009_wnic_disconnect
                0x1001883c                rw009_prepare_tx
                0x100188b8                rw009_add_tx_data
                0x1001898c                rw009_commit_tx
                0x10018a54                rw009_prepare_rx
                0x10018adc                rw009_get_rx_data
                0x10018bac                rw009_accept_rx
                0x10018c30                rw009_config_power_mode
                0x10018c94                rw009_poll_power_mode
                0x10018d00                rw009_wnic_reset
                0x10018d94                rw009_period_process
                0x10018fc0                rw009_isr
 .text          0x10019018      0x368 obj_emsk_22/gnu_arcem7d/board/emsk/common/emsk_gpio.o
                0x10019018                emsk_gpio_init
                0x10019038                emsk_led_init
                0x100190b8                emsk_button_init
                0x1001912c                emsk_switch_init
                0x100191a0                led_write
                0x10019204                led_toggle
                0x1001924c                led_read
                0x100192b0                switch_read
                0x10019318                button_read
 .text          0x10019380      0x380 obj_emsk_22/gnu_arcem7d/board/emsk/common/emsk_timer.o
                0x10019380                board_timer_update
                0x10019484                emsk_timer_init
                0x100194cc                board_get_hwticks
                0x10019574                board_get_cur_us
                0x10019650                board_delay_ms
 .text          0x10019700      0x100 obj_emsk_22/gnu_arcem7d/board/emsk/drivers/sdcard/emsk_sdcard.o
                0x10019700                diskio_get_fattime
                0x100197b8                get_fatfs_diskio
                0x100197e4                emsk_sdcard_1ms_update
 .text          0x10019800      0x1ec obj_emsk_22/gnu_arcem7d/middleware/fatfs/src/diskio.o
                0x10019800                disk_initialize
                0x10019850                disk_status
                0x100198a0                disk_read
                0x10019908                disk_write
                0x10019970                disk_ioctl
                0x100199d4                get_fattime
 .text          0x100199ec     0x19e4 obj_emsk_22/gnu_arcem7d/middleware/lwip/src/core/pbuf.o
                0x10019b08                pbuf_alloc
                0x10019f48                pbuf_alloced_custom
                0x1001a068                pbuf_realloc
                0x1001a430                pbuf_header
                0x1001a464                pbuf_header_force
                0x1001a498                pbuf_free
                0x1001a650                pbuf_clen
                0x1001a690                pbuf_ref
                0x1001a6d4                pbuf_cat
                0x1001a7d4                pbuf_chain
                0x1001a808                pbuf_dechain
                0x1001a8f0                pbuf_copy
                0x1001ab4c                pbuf_copy_partial
                0x1001ad34                pbuf_skip
                0x1001ad70                pbuf_take
                0x1001af20                pbuf_take_at
                0x1001b00c                pbuf_coalesce
                0x1001b0a8                pbuf_get_at
                0x1001b0f0                pbuf_try_get_at
                0x1001b150                pbuf_put_at
                0x1001b1b8                pbuf_memcmp
                0x1001b2ac                pbuf_memfind
                0x1001b350                pbuf_strstr
 .text          0x1001b3d0     0x12bc obj_emsk_22/gnu_arcem7d/middleware/lwip/src/core/dns.o
                0x1001b3e8                dns_init
                0x1001b41c                dns_setserver
                0x1001b474                dns_getserver
                0x1001b4a8                dns_tmr
                0x1001c588                dns_gethostbyname
                0x1001c5c8                dns_gethostbyname_addrtype
 .text          0x1001c68c      0x9cc obj_emsk_22/gnu_arcem7d/middleware/lwip/src/core/mem.o
                0x1001c870                mem_init
                0x1001c940                mem_free
                0x1001ca74                mem_trim
                0x1001cd34                mem_malloc
                0x1001cffc                mem_calloc
 .text          0x1001d058      0xdac obj_emsk_22/gnu_arcem7d/middleware/lwip/src/core/udp.o
                0x1001d070                udp_init
                0x1001d1b0                udp_input
                0x1001d5e0                udp_send
                0x1001d62c                udp_sendto
                0x1001d6ac                udp_sendto_if
                0x1001d760                udp_sendto_if_src
                0x1001d9d4                udp_bind
                0x1001db34                udp_connect
                0x1001dc20                udp_disconnect
                0x1001dc58                udp_recv
                0x1001dc8c                udp_remove
                0x1001dd20                udp_new
                0x1001dd60                udp_new_ip_type
                0x1001dd88                udp_netif_ip_addr_changed
 .text          0x1001de04      0x330 obj_emsk_22/gnu_arcem7d/middleware/lwip/src/core/def.o
                0x1001de04                lwip_htons
                0x1001de34                lwip_htonl
                0x1001de7c                lwip_strnstr
                0x1001df24                lwip_stricmp
                0x1001dfb0                lwip_strnicmp
                0x1001e050                lwip_itoa
 .text          0x1001e134     0x25b4 obj_emsk_22/gnu_arcem7d/middleware/lwip/src/core/tcp.o
                0x1001e14c                tcp_init
                0x1001e15c                tcp_tmr
                0x1001e5ac                tcp_close
                0x1001e5ec                tcp_shutdown
                0x1001e6a8                tcp_abandon
                0x1001e884                tcp_abort
                0x1001e8a8                tcp_bind
                0x1001ea90                tcp_listen_with_backlog
                0x1001ec60                tcp_update_rcv_ann_wnd
                0x1001ed3c                tcp_recved
                0x1001eef8                tcp_connect
                0x1001f234                tcp_slowtmr
                0x1001f9a8                tcp_fasttmr
                0x1001fa90                tcp_txnow
                0x1001fadc                tcp_process_refused_data
                0x1001fc00                tcp_segs_free
                0x1001fc40                tcp_seg_free
                0x1001fc84                tcp_setprio
                0x1001fcac                tcp_seg_copy
                0x1001fcfc                tcp_recv_null
                0x1001ff70                tcp_alloc
                0x100200e0                tcp_new
                0x100200fc                tcp_new_ip_type
                0x10020128                tcp_arg
                0x10020154                tcp_recv
                0x100201b0                tcp_sent
                0x1002020c                tcp_err
                0x10020268                tcp_accept
                0x100202a8                tcp_poll
                0x1002030c                tcp_pcb_purge
                0x100203b4                tcp_pcb_remove
                0x10020504                tcp_next_iss
                0x10020534                tcp_eff_send_mss_impl
                0x10020618                tcp_netif_ip_addr_changed
                0x100206c4                tcp_debug_state_str
 .text          0x100206e8      0x6d8 obj_emsk_22/gnu_arcem7d/middleware/lwip/src/core/netif.o
                0x10020700                netif_init
                0x10020710                netif_input
                0x10020760                netif_add
                0x10020874                netif_set_addr
                0x100208f8                netif_remove
                0x100209e8                netif_find
                0x10020a7c                netif_set_ipaddr
                0x10020b3c                netif_set_gw
                0x10020b70                netif_set_netmask
                0x10020ba4                netif_set_default
                0x10020bc8                netif_set_up
                0x10020c8c                netif_set_down
                0x10020cf8                netif_set_status_callback
                0x10020d24                netif_set_link_up
                0x10020d84                netif_set_link_down
 .text          0x10020dc0      0x5f8 obj_emsk_22/gnu_arcem7d/middleware/lwip/src/core/timeouts.o
                0x10020e2c                tcp_timer_needed
                0x10020ebc                sys_timeouts_init
                0x10020f24                sys_timeout
                0x1002110c                sys_untimeout
                0x100212cc                sys_restart_timeouts
                0x10021350                sys_timeouts_mbox_fetch
 .text          0x100213b8     0x3640 obj_emsk_22/gnu_arcem7d/middleware/lwip/src/core/tcp_in.o
                0x100213d0                tcp_input
                0x100249d4                tcp_trigger_input_pcb_close
 .text          0x100249f8      0x36c obj_emsk_22/gnu_arcem7d/middleware/lwip/src/core/memp.o
                0x10024a10                memp_init_pool
                0x10024a94                memp_init
                0x10024b64                memp_malloc_pool
                0x10024bbc                memp_malloc
                0x10024c94                memp_free_pool
                0x10024cf8                memp_free
 .text          0x10024d64      0x714 obj_emsk_22/gnu_arcem7d/middleware/lwip/src/core/inet_chksum.o
                0x10024d7c                lwip_standard_chksum
                0x10024fbc                inet_chksum_pseudo
                0x10025074                ip_chksum_pseudo
                0x10025258                inet_chksum_pseudo_partial
                0x1002531c                ip_chksum_pseudo_partial
                0x10025374                inet_chksum
                0x100253a8                inet_chksum_pbuf
 .text          0x10025478      0x640 obj_emsk_22/gnu_arcem7d/middleware/lwip/src/core/ipv4/icmp.o
                0x10025490                icmp_input
                0x100258d0                icmp_dest_unreach
                0x10025900                icmp_time_exceeded
 .text          0x10025ab8      0xb68 obj_emsk_22/gnu_arcem7d/middleware/lwip/src/core/ipv4/ip4.o
                0x10025ad0                ip4_route
                0x10025bd4                ip4_input
                0x1002602c                ip4_output_if
                0x100260bc                ip4_output_if_src
                0x10026580                ip4_output
 .text          0x10026620      0x5fc obj_emsk_22/gnu_arcem7d/middleware/lwip/src/core/ipv4/ip4_addr.o
                0x10026638                ip4_addr_isbroadcast_u32
                0x100266d8                ip4_addr_netmask_valid
                0x10026758                ipaddr_addr
                0x10026790                ip4addr_aton
                0x10026ab0                ip4addr_ntoa
                0x10026adc                ip4addr_ntoa_r
 .text          0x10026c1c     0x1460 obj_emsk_22/gnu_arcem7d/middleware/lwip/src/core/ipv4/etharp.o
                0x10026d14                etharp_tmr
                0x10027300                etharp_cleanup_netif
                0x10027378                etharp_find_addr
                0x10027438                etharp_get_entry
                0x10027544                etharp_input
                0x100278c4                etharp_output
                0x10027b1c                etharp_query
                0x10028048                etharp_request
 .text          0x1002807c     0x2ca0 obj_emsk_22/gnu_arcem7d/middleware/lwip/src/core/ipv4/dhcp.o
                0x10028534                dhcp_coarse_tmr
                0x10028624                dhcp_fine_tmr
                0x10028a14                dhcp_set_struct
                0x10028abc                dhcp_cleanup
                0x10028b1c                dhcp_start
                0x10028c88                dhcp_inform
                0x10028d84                dhcp_network_changed
                0x10028df4                dhcp_arp_reply
                0x100293a4                dhcp_renew
                0x10029844                dhcp_release
                0x100299bc                dhcp_stop
                0x1002acc8                dhcp_supplied_address
 .text          0x1002ad1c     0x1460 obj_emsk_22/gnu_arcem7d/middleware/lwip/src/core/ipv4/ip4_frag.o
                0x1002ad34                ip_reass_tmr
                0x1002b890                ip4_reass
                0x1002bdb8                ip4_frag
 .text          0x1002c17c      0x278 obj_emsk_22/gnu_arcem7d/middleware/lwip/src/netif/ethernet.o
                0x1002c194                ethernet_input
                0x1002c30c                ethernet_output
 .text          0x1002c3f4      0x57c obj_emsk_22/gnu_arcem7d/middleware/lwip/src/api/tcpip.o
                0x1002c524                tcpip_inpkt
                0x1002c5d0                tcpip_input
                0x1002c628                tcpip_callback_with_block
                0x1002c6e4                tcpip_send_msg_wait_sem
                0x1002c728                tcpip_api_call
                0x1002c770                tcpip_callbackmsg_new
                0x1002c7c4                tcpip_callbackmsg_delete
                0x1002c7e8                tcpip_trycallback
                0x1002c83c                tcpip_init
                0x1002c918                pbuf_free_callback
                0x1002c944                mem_free_callback
 .text          0x1002c970      0xe38 obj_emsk_22/gnu_arcem7d/middleware/mbedtls/library/ctr_drbg.o
                0x1002c9b4                mbedtls_ctr_drbg_init
                0x1002c9f0                mbedtls_ctr_drbg_seed_entropy_len
                0x1002caa4                mbedtls_ctr_drbg_seed
                0x1002caec                mbedtls_ctr_drbg_free
                0x1002cb3c                mbedtls_ctr_drbg_set_prediction_resistance
                0x1002cb60                mbedtls_ctr_drbg_set_entropy_len
                0x1002cb84                mbedtls_ctr_drbg_set_reseed_interval
                0x1002cfb4                mbedtls_ctr_drbg_update
                0x1002d010                mbedtls_ctr_drbg_reseed
                0x1002d110                mbedtls_ctr_drbg_random_with_add
                0x1002d2b8                mbedtls_ctr_drbg_random
                0x1002d344                mbedtls_ctr_drbg_write_seed_file
                0x1002d3e8                mbedtls_ctr_drbg_update_seed_file
                0x1002d51c                mbedtls_ctr_drbg_self_test
 .text          0x1002d7a8     0x41bc obj_emsk_22/gnu_arcem7d/middleware/mbedtls/library/x509_crt.o
                0x1002e96c                mbedtls_x509_crt_parse_der
                0x1002ea94                mbedtls_x509_crt_parse
                0x1002ec94                mbedtls_x509_crt_parse_file
                0x1002ed0c                mbedtls_x509_crt_parse_path
                0x1002f83c                mbedtls_x509_crt_info
                0x100301bc                mbedtls_x509_crt_verify_info
                0x10030304                mbedtls_x509_crt_check_key_usage
                0x100303ac                mbedtls_x509_crt_check_extended_key_usage
                0x1003047c                mbedtls_x509_crt_is_revoked
                0x1003135c                mbedtls_x509_crt_verify
                0x100313b8                mbedtls_x509_crt_verify_with_profile
                0x10031784                mbedtls_x509_crt_init
                0x100317ac                mbedtls_x509_crt_free
 .text          0x10031964     0x1ab8 obj_emsk_22/gnu_arcem7d/middleware/mbedtls/library/x509.o
                0x10031964                mbedtls_x509_get_serial
                0x10031a2c                mbedtls_x509_get_alg_null
                0x10031a78                mbedtls_x509_get_alg
                0x10031bfc                mbedtls_x509_get_rsassa_pss_params
                0x10032114                mbedtls_x509_get_name
                0x100323e0                mbedtls_x509_get_time
                0x10032728                mbedtls_x509_get_sig
                0x100327cc                mbedtls_x509_get_sig_alg
                0x100328c4                mbedtls_x509_get_ext
                0x100329a8                mbedtls_x509_dn_gets
                0x10032c40                mbedtls_x509_serial_gets
                0x10032dc0                mbedtls_x509_sig_alg_gets
                0x10032f68                mbedtls_x509_key_size_helper
                0x10033250                mbedtls_x509_time_is_past
                0x10033290                mbedtls_x509_time_is_future
                0x100332d0                mbedtls_x509_self_test
 .text          0x1003341c      0x274 obj_emsk_22/gnu_arcem7d/middleware/mbedtls/library/ssl_ciphersuites.o
                0x1003341c                mbedtls_ssl_list_ciphersuites
                0x100334c4                mbedtls_ssl_ciphersuite_from_string
                0x1003352c                mbedtls_ssl_ciphersuite_from_id
                0x10033578                mbedtls_ssl_get_ciphersuite_name
                0x100335b8                mbedtls_ssl_get_ciphersuite_id
                0x100335f4                mbedtls_ssl_get_ciphersuite_sig_pk_alg
                0x10033630                mbedtls_ssl_ciphersuite_uses_ec
                0x10033664                mbedtls_ssl_ciphersuite_uses_psk
 .text          0x10033690        0x0 obj_emsk_22/gnu_arcem7d/middleware/mbedtls/library/certs.o
 .text          0x10033690       0xac obj_emsk_22/gnu_arcem7d/middleware/mbedtls/library/threading.o
                0x10033690                mbedtls_threading_set_alt
                0x10033708                mbedtls_threading_free_alt
 .text          0x1003373c      0x8b8 obj_emsk_22/gnu_arcem7d/middleware/mbedtls/library/pk.o
                0x100337c8                mbedtls_pk_init
                0x100337fc                mbedtls_pk_free
                0x10033848                mbedtls_pk_info_from_type
                0x10033898                mbedtls_pk_setup
                0x10033908                mbedtls_pk_setup_rsa_alt
                0x100339bc                mbedtls_pk_can_do
                0x10033a58                mbedtls_pk_verify
                0x10033af8                mbedtls_pk_verify_ext
                0x10033c40                mbedtls_pk_sign
                0x10033cf0                mbedtls_pk_decrypt
                0x10033d8c                mbedtls_pk_encrypt
                0x10033e28                mbedtls_pk_check_pair
                0x10033ed8                mbedtls_pk_get_bitlen
                0x10033f1c                mbedtls_pk_debug
                0x10033f80                mbedtls_pk_get_name
                0x10033fbc                mbedtls_pk_get_type
 .text          0x10033ff4      0x9b8 obj_emsk_22/gnu_arcem7d/middleware/mbedtls/library/asn1parse.o
                0x10034038                mbedtls_asn1_get_len
                0x10034228                mbedtls_asn1_get_tag
                0x1003429c                mbedtls_asn1_get_bool
                0x1003431c                mbedtls_asn1_get_int
                0x100343d0                mbedtls_asn1_get_mpi
                0x10034448                mbedtls_asn1_get_bitstring
                0x10034518                mbedtls_asn1_get_bitstring_null
                0x10034598                mbedtls_asn1_get_sequence_of
                0x100346d0                mbedtls_asn1_get_alg
                0x10034834                mbedtls_asn1_get_alg_null
                0x100348b0                mbedtls_asn1_free_named_data
                0x100348f8                mbedtls_asn1_free_named_data_list
                0x10034944                mbedtls_asn1_find_named_data
 .text          0x100349ac     0x3690 obj_emsk_22/gnu_arcem7d/middleware/mbedtls/library/rsa.o
                0x100349ac                mbedtls_rsa_init
                0x10034a00                mbedtls_rsa_set_padding
                0x10034a38                mbedtls_rsa_gen_key
                0x10034da8                mbedtls_rsa_check_pubkey
                0x10034e70                mbedtls_rsa_check_privkey
                0x10035288                mbedtls_rsa_check_pub_priv
                0x10035310                mbedtls_rsa_public
                0x10035644                mbedtls_rsa_private
                0x10035ac8                mbedtls_rsa_rsaes_oaep_encrypt
                0x10035d40                mbedtls_rsa_rsaes_pkcs1_v15_encrypt
                0x10035f18                mbedtls_rsa_pkcs1_encrypt
                0x10035fb4                mbedtls_rsa_rsaes_oaep_decrypt
                0x100363bc                mbedtls_rsa_rsaes_pkcs1_v15_decrypt
                0x1003672c                mbedtls_rsa_pkcs1_decrypt
                0x100367d4                mbedtls_rsa_rsassa_pss_sign
                0x10036aec                mbedtls_rsa_rsassa_pkcs1_v15_sign
                0x10036e98                mbedtls_rsa_pkcs1_sign
                0x10036f38                mbedtls_rsa_rsassa_pss_verify_ext
                0x1003736c                mbedtls_rsa_rsassa_pss_verify
                0x100373f0                mbedtls_rsa_rsassa_pkcs1_v15_verify
                0x10037830                mbedtls_rsa_pkcs1_verify
                0x100378d0                mbedtls_rsa_copy
                0x10037b30                mbedtls_rsa_free
                0x10037c68                mbedtls_rsa_self_test
 .text          0x1003803c      0xbd8 obj_emsk_22/gnu_arcem7d/middleware/mbedtls/library/oid.o
                0x100380d8                mbedtls_oid_get_attr_short_name
                0x100381bc                mbedtls_oid_get_x509_ext_type
                0x100382a0                mbedtls_oid_get_extended_key_usage
                0x10038384                mbedtls_oid_get_sig_alg_desc
                0x100383cc                mbedtls_oid_get_sig_alg
                0x10038424                mbedtls_oid_get_oid_by_sig_alg
                0x10038540                mbedtls_oid_get_pk_alg
                0x10038588                mbedtls_oid_get_oid_by_pk_alg
                0x10038694                mbedtls_oid_get_ec_grp
                0x100386dc                mbedtls_oid_get_oid_by_ec_grp
                0x100387e8                mbedtls_oid_get_cipher_alg
                0x100388cc                mbedtls_oid_get_md_alg
                0x10038914                mbedtls_oid_get_oid_by_md
                0x10038a20                mbedtls_oid_get_pkcs12_pbe_alg
                0x10038a78                mbedtls_oid_get_numeric_string
 .text          0x10038c14     0x29f4 obj_emsk_22/gnu_arcem7d/middleware/mbedtls/library/sha1.o
                0x10038c58                mbedtls_sha1_init
                0x10038c80                mbedtls_sha1_free
                0x10038cb0                mbedtls_sha1_clone
                0x10038ce4                mbedtls_sha1_starts
                0x10038d48                mbedtls_sha1_process
                0x1003b06c                mbedtls_sha1_update
                0x1003b1a0                mbedtls_sha1_finish
                0x1003b404                mbedtls_sha1
                0x1003b464                mbedtls_sha1_self_test
 .text          0x1003b608     0x1f2c obj_emsk_22/gnu_arcem7d/middleware/mbedtls/library/pkparse.o
                0x1003b68c                mbedtls_pk_load_file
                0x1003b7dc                mbedtls_pk_parse_keyfile
                0x1003b89c                mbedtls_pk_parse_public_keyfile
                0x1003c298                mbedtls_pk_parse_subpubkey
                0x1003cf50                mbedtls_pk_parse_key
                0x1003d448                mbedtls_pk_parse_public_key
 .text          0x1003d534     0xc63c obj_emsk_22/gnu_arcem7d/middleware/mbedtls/library/ssl_tls.o
                0x1003e270                mbedtls_ssl_derive_keys
                0x1003f2fc                mbedtls_ssl_psk_derive_premaster
                0x10041170                mbedtls_ssl_fetch_input
                0x100417a8                mbedtls_ssl_flush_output
                0x10041ce8                mbedtls_ssl_resend
                0x10041ec8                mbedtls_ssl_recv_flight_completed
                0x10041f60                mbedtls_ssl_send_flight_completed
                0x10041fd0                mbedtls_ssl_write_record
                0x10042be4                mbedtls_ssl_prepare_handshake_record
                0x10042ec8                mbedtls_ssl_update_handshake_status
                0x100430d0                mbedtls_ssl_dtls_replay_check
                0x10043208                mbedtls_ssl_dtls_replay_update
                0x10043e58                mbedtls_ssl_read_record
                0x10043f54                mbedtls_ssl_read_record_layer
                0x1004434c                mbedtls_ssl_handle_message_type
                0x100444e8                mbedtls_ssl_send_fatal_handshake_failure
                0x10044524                mbedtls_ssl_send_alert_message
                0x10044610                mbedtls_ssl_write_certificate
                0x100449bc                mbedtls_ssl_parse_certificate
                0x10045254                mbedtls_ssl_write_change_cipher_spec
                0x10045314                mbedtls_ssl_parse_change_cipher_spec
                0x10045500                mbedtls_ssl_optimize_checksum
                0x10045598                mbedtls_ssl_reset_checksum
                0x10045f68                mbedtls_ssl_handshake_wrapup
                0x100460ec                mbedtls_ssl_write_finished
                0x100463d4                mbedtls_ssl_parse_finished
                0x1004674c                mbedtls_ssl_session_init
                0x10046988                mbedtls_ssl_init
                0x100469b0                mbedtls_ssl_setup
                0x10046e04                mbedtls_ssl_session_reset
                0x10046e2c                mbedtls_ssl_conf_endpoint
                0x10046e64                mbedtls_ssl_conf_transport
                0x10046ea0                mbedtls_ssl_conf_dtls_anti_replay
                0x10046edc                mbedtls_ssl_conf_dtls_badmac_limit
                0x10046f04                mbedtls_ssl_conf_handshake_timeout
                0x10046f3c                mbedtls_ssl_conf_authmode
                0x10046f78                mbedtls_ssl_conf_verify
                0x10046fac                mbedtls_ssl_conf_rng
                0x10046fe0                mbedtls_ssl_conf_dbg
                0x10047014                mbedtls_ssl_set_bio
                0x10047064                mbedtls_ssl_conf_read_timeout
                0x1004708c                mbedtls_ssl_set_timer_cb
                0x100470dc                mbedtls_ssl_conf_session_cache
                0x1004711c                mbedtls_ssl_set_session
                0x100471a4                mbedtls_ssl_conf_ciphersuites
                0x100471e8                mbedtls_ssl_conf_ciphersuites_for_version
                0x10047240                mbedtls_ssl_conf_cert_profile
                0x10047304                mbedtls_ssl_conf_own_cert
                0x10047340                mbedtls_ssl_conf_ca_chain
                0x10047374                mbedtls_ssl_set_hs_own_cert
                0x100473b4                mbedtls_ssl_set_hs_ca_chain
                0x100473f0                mbedtls_ssl_set_hs_authmode
                0x10047418                mbedtls_ssl_conf_psk
                0x100475a0                mbedtls_ssl_set_hs_psk
                0x10047668                mbedtls_ssl_conf_psk_cb
                0x1004769c                mbedtls_ssl_conf_dh_param
                0x10047724                mbedtls_ssl_conf_dh_param_ctx
                0x100477ac                mbedtls_ssl_conf_dhm_min_bitlen
                0x100477d4                mbedtls_ssl_conf_sig_hashes
                0x100477f8                mbedtls_ssl_conf_curves
                0x1004781c                mbedtls_ssl_set_hostname
                0x100478d8                mbedtls_ssl_conf_sni
                0x1004790c                mbedtls_ssl_conf_alpn_protocols
                0x100479a4                mbedtls_ssl_get_alpn_protocol
                0x100479c4                mbedtls_ssl_conf_max_version
                0x10047a00                mbedtls_ssl_conf_min_version
                0x10047a3c                mbedtls_ssl_conf_fallback
                0x10047a78                mbedtls_ssl_conf_encrypt_then_mac
                0x10047ab4                mbedtls_ssl_conf_extended_master_secret
                0x10047af0                mbedtls_ssl_conf_arc4_support
                0x10047b2c                mbedtls_ssl_conf_max_frag_len
                0x10047b90                mbedtls_ssl_conf_truncated_hmac
                0x10047bc8                mbedtls_ssl_conf_cbc_record_splitting
                0x10047c04                mbedtls_ssl_conf_legacy_renegotiation
                0x10047c40                mbedtls_ssl_conf_renegotiation
                0x10047c7c                mbedtls_ssl_conf_renegotiation_enforced
                0x10047ca4                mbedtls_ssl_conf_renegotiation_period
                0x10047cd8                mbedtls_ssl_conf_session_tickets
                0x10047d10                mbedtls_ssl_conf_session_tickets_cb
                0x10047d50                mbedtls_ssl_conf_export_keys_cb
                0x10047d84                mbedtls_ssl_get_bytes_avail
                0x10047db0                mbedtls_ssl_get_verify_result
                0x10047df0                mbedtls_ssl_get_ciphersuite
                0x10047e30                mbedtls_ssl_get_version
                0x10047ec4                mbedtls_ssl_get_record_expansion
                0x10047f84                mbedtls_ssl_get_max_frag_len
                0x10047ffc                mbedtls_ssl_get_peer_cert
                0x10048034                mbedtls_ssl_get_session
                0x1004809c                mbedtls_ssl_handshake_step
                0x1004811c                mbedtls_ssl_handshake
                0x10048374                mbedtls_ssl_renegotiate
                0x10048554                mbedtls_ssl_read
                0x10048df8                mbedtls_ssl_write
                0x10048f04                mbedtls_ssl_close_notify
                0x10048fd4                mbedtls_ssl_transform_free
                0x1004907c                mbedtls_ssl_handshake_free
                0x100491a8                mbedtls_ssl_session_free
                0x10049204                mbedtls_ssl_free
                0x100493ac                mbedtls_ssl_config_init
                0x100493d4                mbedtls_ssl_config_defaults
                0x1004962c                mbedtls_ssl_config_free
                0x100496e4                mbedtls_ssl_sig_from_pk
                0x1004972c                mbedtls_ssl_pk_alg_from_sig
                0x1004975c                mbedtls_ssl_md_alg_from_hash
                0x100497a8                mbedtls_ssl_hash_from_md_alg
                0x100497f0                mbedtls_ssl_check_curve
                0x10049854                mbedtls_ssl_check_sig_hash
                0x100498b8                mbedtls_ssl_check_cert_usage
                0x100499b8                mbedtls_ssl_write_version
                0x10049a38                mbedtls_ssl_read_version
                0x10049ac0                mbedtls_ssl_set_calc_verify_md
 .text          0x10049b70     0x1144 obj_emsk_22/gnu_arcem7d/middleware/mbedtls/library/dhm.o
                0x10049d3c                mbedtls_dhm_init
                0x10049d64                mbedtls_dhm_read_params
                0x10049e30                mbedtls_dhm_make_params
                0x1004a114                mbedtls_dhm_read_public
                0x1004a18c                mbedtls_dhm_make_public
                0x1004a5bc                mbedtls_dhm_calc_secret
                0x1004a7cc                mbedtls_dhm_free
                0x1004a868                mbedtls_dhm_parse_dhm
                0x1004aba8                mbedtls_dhm_parse_dhmfile
                0x1004ac20                mbedtls_dhm_self_test
 .text          0x1004acb4     0x1770 obj_emsk_22/gnu_arcem7d/middleware/mbedtls/library/cipher.o
                0x1004ad7c                mbedtls_cipher_list
                0x1004adf4                mbedtls_cipher_info_from_type
                0x1004ae44                mbedtls_cipher_info_from_string
                0x1004aeb0                mbedtls_cipher_info_from_values
                0x1004af2c                mbedtls_cipher_init
                0x1004af54                mbedtls_cipher_free
                0x1004afa0                mbedtls_cipher_setup
                0x1004b020                mbedtls_cipher_setkey
                0x1004b118                mbedtls_cipher_set_iv
                0x1004b1c8                mbedtls_cipher_reset
                0x1004b204                mbedtls_cipher_update_ad
                0x1004b288                mbedtls_cipher_update
                0x1004bd18                mbedtls_cipher_finish
                0x1004befc                mbedtls_cipher_set_padding_mode
                0x1004bfdc                mbedtls_cipher_write_tag
                0x1004c05c                mbedtls_cipher_check_tag
                0x1004c150                mbedtls_cipher_crypt
                0x1004c22c                mbedtls_cipher_auth_encrypt
                0x1004c310                mbedtls_cipher_auth_decrypt
 .text          0x1004c424     0x3a70 obj_emsk_22/gnu_arcem7d/middleware/mbedtls/library/sha512.o
                0x1004c468                mbedtls_sha512_init
                0x1004c490                mbedtls_sha512_free
                0x1004c4c0                mbedtls_sha512_clone
                0x1004c4f4                mbedtls_sha512_starts
                0x1004c6c8                mbedtls_sha512_process
                0x1004eddc                mbedtls_sha512_update
                0x1004ef40                mbedtls_sha512_finish
                0x1004fc18                mbedtls_sha512
                0x1004fc84                mbedtls_sha512_self_test
 .text          0x1004fe94      0xab8 obj_emsk_22/gnu_arcem7d/middleware/mbedtls/library/entropy.o
                0x1004fed8                mbedtls_entropy_init
                0x1004ff60                mbedtls_entropy_free
                0x1004ffac                mbedtls_entropy_add_source
                0x10050158                mbedtls_entropy_update_manual
                0x10050314                mbedtls_entropy_gather
                0x1005038c                mbedtls_entropy_func
                0x10050564                mbedtls_entropy_write_seed_file
                0x10050604                mbedtls_entropy_update_seed_file
                0x1005073c                mbedtls_entropy_self_test
 .text          0x1005094c     0x2adc obj_emsk_22/gnu_arcem7d/middleware/mbedtls/library/aes.o
                0x10050ed8                mbedtls_aes_init
                0x10050f00                mbedtls_aes_free
                0x10050f30                mbedtls_aes_setkey_enc
                0x10051468                mbedtls_aes_setkey_dec
                0x100516b0                mbedtls_aes_encrypt
                0x10051ec4                mbedtls_aes_decrypt
                0x100526d8                mbedtls_aes_crypt_ecb
                0x1005272c                mbedtls_aes_crypt_cbc
                0x100528b8                mbedtls_aes_crypt_cfb128
                0x10052a08                mbedtls_aes_crypt_cfb8
                0x10052ad0                mbedtls_aes_crypt_ctr
                0x10052bc8                mbedtls_aes_self_test
 .text          0x10053428      0xcf4 obj_emsk_22/gnu_arcem7d/middleware/mbedtls/library/debug.o
                0x10053428                mbedtls_debug_set_threshold
                0x100534c4                mbedtls_debug_print_msg
                0x100535b4                mbedtls_debug_print_ret
                0x10053660                mbedtls_debug_print_buf
                0x10053928                mbedtls_debug_print_ecp
                0x10053a00                mbedtls_debug_print_mpi
                0x10053f5c                mbedtls_debug_print_crt
 .text          0x1005411c     0x2fe0 obj_emsk_22/gnu_arcem7d/middleware/mbedtls/library/havege.o
                0x10056fb4                mbedtls_havege_init
                0x10056fe8                mbedtls_havege_free
                0x1005701c                mbedtls_havege_random
 .text          0x100570fc       0xc0 obj_emsk_22/gnu_arcem7d/middleware/mbedtls/library/entropy_poll.o
                0x100570fc                mbedtls_hardclock_poll
                0x1005715c                mbedtls_havege_poll
 .text          0x100571bc     0x1758 obj_emsk_22/gnu_arcem7d/middleware/mbedtls/library/error.o
                0x100571bc                mbedtls_strerror
 .text          0x10058914      0xc14 obj_emsk_22/gnu_arcem7d/middleware/mbedtls/library/pem.o
                0x10058958                mbedtls_pem_init
                0x10058da4                mbedtls_pem_read_buffer
                0x100592f8                mbedtls_pem_free
                0x10059334                mbedtls_pem_write_buffer
 .text          0x10059528      0x9f8 obj_emsk_22/gnu_arcem7d/middleware/mbedtls/library/pkcs12.o
                0x100597c0                mbedtls_pkcs12_pbe_sha1_rc4_128
                0x10059888                mbedtls_pkcs12_pbe
                0x10059ad0                mbedtls_pkcs12_derivation
 .text          0x10059f20      0x170 obj_emsk_22/gnu_arcem7d/middleware/mbedtls/embarc/threading_alt.o
                0x10059f20                threading_mutex_init_freertos
                0x10059f74                threading_mutex_free_freertos
                0x10059fcc                threading_mutex_lock_freertos
                0x1005a02c                threading_mutex_unlock_freertos
 .text          0x1005a090      0x1a0 obj_emsk_22/gnu_arcem7d/middleware/mbedtls/embarc/timing_alt.o
                0x1005a090                mbedtls_timing_hardclock
                0x1005a0a8                mbedtls_timing_get_timer
                0x1005a120                mbedtls_set_alarm
                0x1005a170                mbedtls_timing_set_delay
                0x1005a1c4                mbedtls_timing_get_delay
 .text          0x1005a230      0x98c obj_emsk_22/gnu_arcem7d/middleware/mbedtls/embarc/net_alt.o
                0x1005a240                mbedtls_net_init
                0x1005a260                mbedtls_net_connect
                0x1005a3a8                mbedtls_net_bind
                0x1005a5bc                mbedtls_net_accept
                0x1005a7e4                mbedtls_net_set_block
                0x1005a82c                mbedtls_net_set_nonblock
                0x1005a874                mbedtls_net_usleep
                0x1005a8d0                mbedtls_net_recv
                0x1005a980                mbedtls_net_recv_timeout
                0x1005aac4                mbedtls_net_send
                0x1005ab74                mbedtls_net_free
 .text          0x1005abbc      0x4a4 obj_emsk_22/gnu_arcem7d/middleware/u8glib/csrc/u8g_com_embarc_ssd1306_spi.o
                0x1005ae78                u8g_com_embarc_ssd_spi_fn_sel
                0x1005b018                u8g_com_embarc_ssd_spi_fn
 .text          0x1005b060      0x264 obj_emsk_22/gnu_arcem7d/middleware/u8glib/csrc/u8g_dev_embarc_ssd1306_128x64.o
                0x1005b060                u8g_dev_ssd1306_128x64_fn
                0x1005b178                u8g_dev_ssd1306_128x64_2x_fn
 .text          0x1005b2c4      0x328 obj_emsk_22/gnu_arcem7d/middleware/u8glib/csrc/u8g_pb.o
                0x1005b2c4                u8g_pb_Clear
                0x1005b318                u8g_pb_IsYIntersection
                0x1005b3d0                u8g_pb_IsXIntersection
                0x1005b434                u8g_pb_IsIntersection
                0x1005b4d4                u8g_pb_GetPageBox
                0x1005b52c                u8g_pb_Is8PixelVisible
                0x1005b5a8                u8g_pb_WriteBuffer
 .text          0x1005b5ec      0x43c obj_emsk_22/gnu_arcem7d/middleware/u8glib/csrc/u8g_pb16v1.o
                0x1005b5ec                u8g_pb16v1_Clear
                0x1005b644                u8g_pb16v1_Init
                0x1005b684                u8g_pb16v1_set_pixel
                0x1005b744                u8g_pb16v1_SetPixel
                0x1005b7c4                u8g_pb16v1_Set8PixelStd
                0x1005b878                u8g_pb16v1_Set8PixelOpt2
                0x1005b944                u8g_dev_pb16v1_base_fn
 .text          0x1005ba28     0x24c8 obj_emsk_22/gnu_arcem7d/middleware/u8glib/csrc/u8g_font.o
                0x1005bbc0                u8g_font_GetCapitalAHeight
                0x1005bbe8                u8g_font_GetEncoding65Pos
                0x1005bc10                u8g_font_GetEncoding97Pos
                0x1005bc38                u8g_font_GetFontStartEncoding
                0x1005bc60                u8g_font_GetFontEndEncoding
                0x1005bc88                u8g_font_GetLowerGDescent
                0x1005bcb0                u8g_font_GetFontAscent
                0x1005bcd8                u8g_font_GetFontDescent
                0x1005bd00                u8g_font_GetFontXAscent
                0x1005bd28                u8g_font_GetFontXDescent
                0x1005bd80                u8g_font_GetSize
                0x1005be68                u8g_GetFontBBXWidth
                0x1005be90                u8g_GetFontBBXHeight
                0x1005beb8                u8g_GetFontBBXOffX
                0x1005bee0                u8g_GetFontBBXOffY
                0x1005bf08                u8g_GetFontCapitalAHeight
                0x1005c084                u8g_GetGlyph
                0x1005c240                u8g_IsGlyph
                0x1005c27c                u8g_GetGlyphDeltaX
                0x1005c2bc                u8g_draw_glyph
                0x1005c468                u8g_DrawGlyph
                0x1005c4cc                u8g_draw_glyph90
                0x1005c664                u8g_DrawGlyph90
                0x1005c6c8                u8g_draw_glyph180
                0x1005c870                u8g_DrawGlyph180
                0x1005c8d4                u8g_draw_glyph270
                0x1005ca90                u8g_DrawGlyph270
                0x1005caf4                u8g_DrawStr
                0x1005cb9c                u8g_DrawStr90
                0x1005cc44                u8g_DrawStr180
                0x1005ccec                u8g_DrawStr270
                0x1005cd94                u8g_DrawStrDir
                0x1005ce54                u8g_DrawStrP
                0x1005cf00                u8g_DrawStr90P
                0x1005cfac                u8g_DrawStr180P
                0x1005d058                u8g_DrawStr270P
                0x1005d104                u8g_DrawStrFontBBX
                0x1005d180                u8g_DrawGlyphFontBBX
                0x1005d200                u8g_UpdateRefHeight
                0x1005d334                u8g_SetFontRefHeightText
                0x1005d360                u8g_SetFontRefHeightExtendedText
                0x1005d38c                u8g_SetFontRefHeightAll
                0x1005d3b8                u8g_SetFontLineSpacingFactor
                0x1005d3ec                u8g_font_calc_vref_font
                0x1005d404                u8g_SetFontPosBaseline
                0x1005d428                u8g_font_calc_vref_bottom
                0x1005d448                u8g_SetFontPosBottom
                0x1005d46c                u8g_font_calc_vref_top
                0x1005d49c                u8g_SetFontPosTop
                0x1005d4c0                u8g_font_calc_vref_center
                0x1005d524                u8g_SetFontPosCenter
                0x1005d548                u8g_font_get_char
                0x1005d564                u8g_font_get_charP
                0x1005d580                u8g_font_calc_str_pixel_width
                0x1005d67c                u8g_GetStrPixelWidth
                0x1005d6b0                u8g_GetStrPixelWidthP
                0x1005d6e4                u8g_GetStrX
                0x1005d71c                u8g_GetStrXP
                0x1005d754                u8g_GetStrWidth
                0x1005d7c0                u8g_GetStrWidthP
                0x1005d998                u8g_font_box_min
                0x1005d9cc                u8g_font_box_left_gA
                0x1005d9ec                u8g_font_box_all_gA
                0x1005dab8                u8g_GetStrMinBox
                0x1005db34                u8g_GetStrAMinBox
                0x1005dbd8                u8g_SetFont
                0x1005dc20                u8g_draw_aa_glyph
                0x1005ddcc                u8g_DrawAAGlyph
                0x1005de30                u8g_DrawAAStr
 .text          0x1005def0      0x3c8 obj_emsk_22/gnu_arcem7d/middleware/u8glib/csrc/u8g_pb8v1.o
                0x1005def0                u8g_pb8v1_Init
                0x1005df30                u8g_pb8v1_set_pixel
                0x1005dfd4                u8g_pb8v1_SetPixel
                0x1005e054                u8g_pb8v1_Set8PixelStd
                0x1005e108                u8g_pb8v1_Set8PixelOpt2
                0x1005e1d4                u8g_dev_pb8v1_base_fn
 .text          0x1005e2b8      0x884 obj_emsk_22/gnu_arcem7d/middleware/u8glib/csrc/u8g_rect.o
                0x1005e2b8                u8g_draw_hline
                0x1005e374                u8g_draw_vline
                0x1005e430                u8g_DrawHLine
                0x1005e498                u8g_DrawVLine
                0x1005e500                u8g_DrawFrame
                0x1005e5ec                u8g_draw_box
                0x1005e658                u8g_DrawBox
                0x1005e6d0                u8g_DrawRFrame
                0x1005e914                u8g_DrawRBox
 .text          0x1005eb3c      0xbc0 obj_emsk_22/gnu_arcem7d/middleware/u8glib/csrc/u8g_ll_api.o
                0x1005eb3c                u8g_call_dev_fn
                0x1005eb80                u8g_InitLL
                0x1005ebd8                u8g_FirstPageLL
                0x1005ec3c                u8g_NextPageLL
                0x1005ecb0                u8g_SetContrastLL
                0x1005ece8                u8g_DrawPixelLL
                0x1005ed40                u8g_Draw8PixelLL
                0x1005edbc                u8g_Draw4TPixelLL
                0x1005ee38                u8g_GetWidthLL
                0x1005ee70                u8g_GetHeightLL
                0x1005eea8                u8g_GetModeLL
                0x1005eed8                u8g_UpdateDimension
                0x1005eff8                u8g_Begin
                0x1005f038                u8g_Init
                0x1005f074                u8g_InitComFn
                0x1005f0c0                u8g_FirstPage
                0x1005f0ec                u8g_NextPage
                0x1005f130                u8g_SetContrast
                0x1005f168                u8g_SleepOn
                0x1005f198                u8g_SleepOff
                0x1005f1c8                u8g_DrawPixel
                0x1005f20c                u8g_Draw8Pixel
                0x1005f268                u8g_Draw4TPixel
                0x1005f2c4                u8g_Draw8ColorPixel
                0x1005f348                u8g_SetColorEntry
                0x1005f3bc                u8g_SetColorIndex
                0x1005f3e4                u8g_SetHiColor
                0x1005f420                u8g_SetHiColorByRGB
                0x1005f4cc                u8g_SetRGB
                0x1005f598                u8g_GetColorIndex
                0x1005f5b8                u8g_GetDefaultForegroundColor
                0x1005f5f8                u8g_SetDefaultForegroundColor
                0x1005f648                u8g_GetDefaultBackgroundColor
                0x1005f660                u8g_SetDefaultBackgroundColor
                0x1005f690                u8g_GetDefaultMidColor
                0x1005f6cc                u8g_SetDefaultMidColor
 .text          0x1005f6fc       0x8c obj_emsk_22/gnu_arcem7d/middleware/u8glib/csrc/u8g_delay.o
                0x1005f6fc                u8g_Delay
                0x1005f750                u8g_MicroDelay
                0x1005f76c                u8g_10MicroDelay
 .text          0x1005f788      0x170 obj_emsk_22/gnu_arcem7d/middleware/u8glib/csrc/u8g_clip.o
                0x1005f788                u8g_IsBBXIntersection
 .text          0x1005f8f8      0x1fc obj_emsk_22/gnu_arcem7d/middleware/u8glib/csrc/u8g_line.o
                0x1005f8f8                u8g_DrawLine
 .text          0x1005faf4       0x60 obj_emsk_22/gnu_arcem7d/middleware/u8glib/csrc/u8g_state.o
                0x1005faf4                u8g_state_dummy_cb
                0x1005fb0c                u8g_SetHardwareBackup
                0x1005fb3c                u8g_backup_spi
 .text          0x1005fb54      0x728 obj_emsk_22/gnu_arcem7d/middleware/u8glib/csrc/u8g_circle.o
                0x1005fce4                u8g_draw_circle
                0x1005fe10                u8g_DrawCircle
                0x1006009c                u8g_draw_disc
                0x100601c8                u8g_DrawDisc
 .text          0x1006027c        0x0 obj_emsk_22/gnu_arcem7d/middleware/u8glib/fntsrc/u8g_font_gdr30.o
 .text          0x1006027c        0x0 obj_emsk_22/gnu_arcem7d/middleware/u8glib/fntsrc/u8g_font_gdr20.o
 .text          0x1006027c        0x0 obj_emsk_22/gnu_arcem7d/middleware/u8glib/fntsrc/u8g_font_6x10.o
 .text          0x1006027c      0x19c obj_emsk_22/gnu_arcem7d/os/freertos/portable/synopsys/arc/port.o
                0x10060300                pxPortInitialiseStack
                0x1006037c                xPortStartScheduler
                0x10060398                vPortEndScheduler
                0x100603a8                vPortYieldFromIsr
                0x100603d8                vPortYield
                0x10060404                vPortEndTask
 .text          0x10060418      0x2d4 obj_emsk_22/gnu_arcem7d/os/freertos/portable/heap_sel.o
                0x10060418                pvPortMalloc
                0x100605ac                vPortFree
                0x10060654                xPortGetFreeHeapSize
                0x1006066c                vPortInitialiseBlocks
 .text          0x100606ec      0x71c obj_emsk_22/gnu_arcem7d/os/freertos/portable/synopsys/arc/arc_support.o
                0x100606ec                dispatch
                0x10060808                start_dispatch
                0x10060854                start_r
                0x1006086c                exc_entry_cpu
                0x10060bd4                exc_entry_int
 .text          0x10060e08      0x1e8 obj_emsk_22/gnu_arcem7d/library/clib/fatfs_dirent.o
                0x10060e08                opendir
                0x10060e68                readdir
                0x10060f54                closedir
                0x10060fa4                fatfs_stat
 .text          0x10060ff0      0x4dc obj_emsk_22/gnu_arcem7d/board/emsk/drivers/ip/designware/iic/dw_iic_obj.o
                0x10061458                iic_get_dev
                0x100614b0                dw_iic_all_install
 .text          0x100614cc      0x568 obj_emsk_22/gnu_arcem7d/board/emsk/drivers/ip/designware/spi/dw_spi_obj.o
                0x100619c0                spi_get_dev
                0x10061a18                dw_spi_all_install
 .text          0x10061a34     0x2d74 obj_emsk_22/gnu_arcem7d/device/ip/designware/iic/dw_iic.o
                0x10061e5c                dw_iic_calc_spklen
                0x10061f30                dw_iic_calc_sclcnt
                0x10063670                dw_iic_open
                0x10063a08                dw_iic_close
                0x10063b14                dw_iic_control
                0x100642f0                dw_iic_write
                0x100644ec                dw_iic_read
                0x10064714                dw_iic_isr
 .text          0x100647a8     0x2770 obj_emsk_22/gnu_arcem7d/device/ip/designware/spi/dw_spi.o
                0x10065ab0                dw_spi_open
                0x10065d90                dw_spi_close
                0x10065e9c                dw_spi_control
                0x10066a34                dw_spi_write
                0x10066bc8                dw_spi_read
                0x10066d5c                dw_spi_isr
 .text          0x10066f18      0x128 obj_emsk_22/gnu_arcem7d/board/emsk/drivers/sdcard/emsk_sdcard_spi.o
 .text          0x10067040     0x11f0 obj_emsk_22/gnu_arcem7d/middleware/fatfs/src/diskdrv/ff_sdcard_spi.o
                0x10067504                sdcard_spi_diskio_initialize
                0x10067878                sdcard_spi_diskio_status
                0x100678dc                sdcard_spi_diskio_read
                0x10067a64                sdcard_spi_diskio_write
                0x10067c60                sdcard_spi_diskio_ioctl
                0x10068138                sdcard_spi_diskio_timerproc
 .text          0x10068230     0x2744 obj_emsk_22/gnu_arcem7d/middleware/lwip/src/core/tcp_out.o
                0x100684c0                tcp_send_fin
                0x10068a00                tcp_write
                0x10069404                tcp_enqueue_flags
                0x1006969c                tcp_send_empty_ack
                0x100697f4                tcp_output
                0x1006a0b8                tcp_rst
                0x1006a364                tcp_rexmit_rto
                0x1006a408                tcp_rexmit
                0x1006a520                tcp_rexmit_fast
                0x1006a604                tcp_keepalive
                0x1006a704                tcp_zero_window_probe
 .text          0x1006a974      0x604 obj_emsk_22/gnu_arcem7d/middleware/lwip/src/core/raw.o
                0x1006a9f0                raw_input
                0x1006ab4c                raw_bind
                0x1006ab98                raw_connect
                0x1006abe4                raw_recv
                0x1006ac18                raw_sendto
                0x1006ad90                raw_send
                0x1006adc4                raw_remove
                0x1006ae58                raw_new
                0x1006aec4                raw_new_ip_type
                0x1006aefc                raw_netif_ip_addr_changed
 .text          0x1006af78        0x0 obj_emsk_22/gnu_arcem7d/middleware/lwip/src/core/ip.o
 .text          0x1006af78       0x34 obj_emsk_22/gnu_arcem7d/middleware/lwip/src/core/init.o
                0x1006af78                lwip_init
 .text          0x1006afac     0x33f4 obj_emsk_22/gnu_arcem7d/middleware/lwip/src/api/sockets.o
                0x1006afc4                lwip_socket_thread_init
                0x1006afd4                lwip_socket_thread_cleanup
                0x1006b240                lwip_accept
                0x1006b5e4                lwip_bind
                0x1006b728                lwip_close
                0x1006b808                lwip_connect
                0x1006b974                lwip_listen
                0x1006ba80                lwip_recvfrom
                0x1006bf3c                lwip_read
                0x1006bf78                lwip_recv
                0x1006bfb8                lwip_send
                0x1006c0bc                lwip_sendmsg
                0x1006c530                lwip_sendto
                0x1006c718                lwip_socket
                0x1006c808                lwip_write
                0x1006c840                lwip_writev
                0x1006cc14                lwip_select
                0x1006d42c                lwip_shutdown
                0x1006d6dc                lwip_getpeername
                0x1006d714                lwip_getsockname
                0x1006d74c                lwip_getsockopt
                0x1006dce0                lwip_setsockopt
                0x1006e140                lwip_ioctl
                0x1006e23c                lwip_fcntl
 .text          0x1006e3a0       0x84 obj_emsk_22/gnu_arcem7d/middleware/lwip/src/api/err.o
                0x1006e3a0                lwip_strerr
                0x1006e3e4                err_to_errno
 .text          0x1006e424      0x4bc obj_emsk_22/gnu_arcem7d/middleware/lwip/src/api/netbuf.o
                0x1006e43c                netbuf_new
                0x1006e474                netbuf_delete
                0x1006e4cc                netbuf_alloc
                0x1006e590                netbuf_free
                0x1006e5f8                netbuf_ref
                0x1006e6b4                netbuf_chain
                0x1006e748                netbuf_data
                0x1006e81c                netbuf_next
                0x1006e894                netbuf_first
 .text          0x1006e8e0      0xeb8 obj_emsk_22/gnu_arcem7d/middleware/lwip/src/api/api_lib.o
                0x1006e950                netconn_new_with_proto_and_callback
                0x1006ea9c                netconn_delete
                0x1006eb08                netconn_getaddr
                0x1006ebf0                netconn_bind
                0x1006ec80                netconn_connect
                0x1006ed14                netconn_disconnect
                0x1006ed80                netconn_listen_with_backlog
                0x1006edf0                netconn_accept
                0x1006f1a0                netconn_recv_tcp_pbuf
                0x1006f208                netconn_recv
                0x1006f34c                netconn_sendto
                0x1006f3b4                netconn_send
                0x1006f42c                netconn_write_partly
                0x1006f614                netconn_close
                0x1006f63c                netconn_shutdown
                0x1006f694                netconn_gethostbyname
 .text          0x1006f798      0x550 obj_emsk_22/gnu_arcem7d/middleware/lwip/src/api/netdb.o
                0x1006f7b0                lwip_gethostbyname
                0x1006f884                lwip_gethostbyname_r
                0x1006f9ec                lwip_freeaddrinfo
                0x1006fa2c                lwip_getaddrinfo
 .text          0x1006fce8     0x691c obj_emsk_22/gnu_arcem7d/middleware/mbedtls/library/bignum.o
                0x1006fd2c                mbedtls_mpi_init
                0x1006fd68                mbedtls_mpi_free
                0x1006fdd0                mbedtls_mpi_grow
                0x1006fe88                mbedtls_mpi_shrink
                0x1006ff94                mbedtls_mpi_copy
                0x10070080                mbedtls_mpi_swap
                0x100700cc                mbedtls_mpi_safe_cond_assign
                0x10070210                mbedtls_mpi_safe_cond_swap
                0x100703ac                mbedtls_mpi_lset
                0x10070428                mbedtls_mpi_get_bit
                0x10070474                mbedtls_mpi_set_bit
                0x10070570                mbedtls_mpi_lsb
                0x10070654                mbedtls_mpi_bitlen
                0x100706e4                mbedtls_mpi_size
                0x100707a8                mbedtls_mpi_read_string
                0x10070b24                mbedtls_mpi_write_string
                0x10070d54                mbedtls_mpi_read_file
                0x10070ec8                mbedtls_mpi_write_file
                0x1007105c                mbedtls_mpi_read_binary
                0x10071188                mbedtls_mpi_write_binary
                0x10071240                mbedtls_mpi_shift_l
                0x10071410                mbedtls_mpi_shift_r
                0x100715c8                mbedtls_mpi_cmp_abs
                0x10071720                mbedtls_mpi_cmp_mpi
                0x100718c0                mbedtls_mpi_cmp_int
                0x1007191c                mbedtls_mpi_add_abs
                0x10071c24                mbedtls_mpi_sub_abs
                0x10071d38                mbedtls_mpi_add_mpi
                0x10071e1c                mbedtls_mpi_sub_mpi
                0x10071f00                mbedtls_mpi_add_int
                0x10071f64                mbedtls_mpi_sub_int
                0x10073738                mbedtls_mpi_mul_mpi
                0x10073924                mbedtls_mpi_mul_int
                0x10073a5c                mbedtls_mpi_div_mpi
                0x1007418c                mbedtls_mpi_div_int
                0x100741f8                mbedtls_mpi_mod_mpi
                0x100742c8                mbedtls_mpi_mod_int
                0x100746ac                mbedtls_mpi_exp_mod
                0x10075030                mbedtls_mpi_gcd
                0x1007527c                mbedtls_mpi_fill_random
                0x1007533c                mbedtls_mpi_inv_mod
                0x10075d70                mbedtls_mpi_is_prime
                0x10075e30                mbedtls_mpi_gen_prime
                0x100760fc                mbedtls_mpi_self_test
 .text          0x10076604     0x57e0 obj_emsk_22/gnu_arcem7d/middleware/mbedtls/library/ssl_cli.o
                0x1007bb94                mbedtls_ssl_handshake_client_step
 .text          0x1007bde4      0x9e0 obj_emsk_22/gnu_arcem7d/middleware/mbedtls/library/pk_wrap.o
 .text          0x1007c7c4      0x6bc obj_emsk_22/gnu_arcem7d/middleware/mbedtls/library/base64.o
                0x1007c7c4                mbedtls_base64_encode
                0x1007ca80                mbedtls_base64_decode
                0x1007cd80                mbedtls_base64_self_test
 .text          0x1007ce80      0xb68 obj_emsk_22/gnu_arcem7d/middleware/mbedtls/library/md.o
                0x1007cec4                mbedtls_md_list
                0x1007ced8                mbedtls_md_info_from_string
                0x1007cff8                mbedtls_md_info_from_type
                0x1007d060                mbedtls_md_init
                0x1007d088                mbedtls_md_free
                0x1007d10c                mbedtls_md_clone
                0x1007d188                mbedtls_md_init_ctx
                0x1007d1b8                mbedtls_md_setup
                0x1007d268                mbedtls_md_starts
                0x1007d2b0                mbedtls_md_update
                0x1007d30c                mbedtls_md_finish
                0x1007d35c                mbedtls_md
                0x1007d3ac                mbedtls_md_file
                0x1007d4fc                mbedtls_md_hmac_starts
                0x1007d6ac                mbedtls_md_hmac_update
                0x1007d714                mbedtls_md_hmac_finish
                0x1007d7f0                mbedtls_md_hmac_reset
                0x1007d870                mbedtls_md_hmac
                0x1007d91c                mbedtls_md_process
                0x1007d96c                mbedtls_md_get_size
                0x1007d998                mbedtls_md_get_type
                0x1007d9c0                mbedtls_md_get_name
 .text          0x1007d9e8      0xc00 obj_emsk_22/gnu_arcem7d/middleware/mbedtls/library/ccm.o
                0x1007da2c                mbedtls_ccm_init
                0x1007da54                mbedtls_ccm_setkey
                0x1007db04                mbedtls_ccm_free
                0x1007e220                mbedtls_ccm_encrypt_and_tag
                0x1007e28c                mbedtls_ccm_auth_decrypt
                0x1007e374                mbedtls_ccm_self_test
 .text          0x1007e5e8     0x2e04 obj_emsk_22/gnu_arcem7d/middleware/mbedtls/library/ecp_curves.o
                0x1007e87c                mbedtls_ecp_group_load
 .text          0x100813ec      0x408 obj_emsk_22/gnu_arcem7d/middleware/mbedtls/library/arc4.o
                0x10081430                mbedtls_arc4_init
                0x10081458                mbedtls_arc4_free
                0x10081488                mbedtls_arc4_setup
                0x10081590                mbedtls_arc4_crypt
                0x100816a4                mbedtls_arc4_self_test
 .text          0x100817f4     0x5158 obj_emsk_22/gnu_arcem7d/middleware/mbedtls/library/ecp.o
                0x10081838                mbedtls_ecp_curve_list
                0x1008184c                mbedtls_ecp_grp_id_list
                0x100818d0                mbedtls_ecp_curve_info_from_grp_id
                0x10081920                mbedtls_ecp_curve_info_from_tls_id
                0x10081974                mbedtls_ecp_curve_info_from_name
                0x10081a04                mbedtls_ecp_point_init
                0x10081a4c                mbedtls_ecp_group_init
                0x10081a7c                mbedtls_ecp_keypair_init
                0x10081ac4                mbedtls_ecp_point_free
                0x10081b0c                mbedtls_ecp_group_free
                0x10081bd0                mbedtls_ecp_keypair_free
                0x10081c18                mbedtls_ecp_copy
                0x10081ca4                mbedtls_ecp_group_copy
                0x10081cd4                mbedtls_ecp_set_zero
                0x10081d48                mbedtls_ecp_is_zero
                0x10081d78                mbedtls_ecp_point_cmp
                0x10081df0                mbedtls_ecp_point_read_string
                0x10081e7c                mbedtls_ecp_point_write_binary
                0x1008200c                mbedtls_ecp_point_read_binary
                0x10082120                mbedtls_ecp_tls_read_point
                0x100821c4                mbedtls_ecp_tls_write_point
                0x1008225c                mbedtls_ecp_tls_read_group
                0x10082328                mbedtls_ecp_tls_write_group
                0x10085900                mbedtls_ecp_mul
                0x10085dfc                mbedtls_ecp_muladd
                0x10085f20                mbedtls_ecp_check_pubkey
                0x10085fa4                mbedtls_ecp_check_privkey
                0x10086070                mbedtls_ecp_gen_keypair_base
                0x100862a0                mbedtls_ecp_gen_keypair
                0x100862f0                mbedtls_ecp_gen_key
                0x10086360                mbedtls_ecp_check_pub_priv
                0x100864d0                mbedtls_ecp_self_test
 .text          0x1008694c      0x644 obj_emsk_22/gnu_arcem7d/middleware/mbedtls/library/ecdh.o
                0x1008694c                mbedtls_ecdh_gen_public
                0x10086990                mbedtls_ecdh_compute_shared
                0x10086a58                mbedtls_ecdh_init
                0x10086a80                mbedtls_ecdh_free
                0x10086b10                mbedtls_ecdh_make_params
                0x10086c28                mbedtls_ecdh_read_params
                0x10086cb4                mbedtls_ecdh_get_params
                0x10086d7c                mbedtls_ecdh_make_public
                0x10086e28                mbedtls_ecdh_read_public
                0x10086eb8                mbedtls_ecdh_calc_secret
 .text          0x10086f90      0xb70 obj_emsk_22/gnu_arcem7d/middleware/mbedtls/library/cipher_wrap.o
 .text          0x10087b00     0x23fc obj_emsk_22/gnu_arcem7d/middleware/mbedtls/library/des.o
                0x10087b44                mbedtls_des_init
                0x10087b6c                mbedtls_des_free
                0x10087b9c                mbedtls_des3_init
                0x10087bc4                mbedtls_des3_free
                0x10087bf4                mbedtls_des_key_set_parity
                0x10087c4c                mbedtls_des_key_check_key_parity
                0x10087cac                mbedtls_des_key_check_weak
                0x10087d08                mbedtls_des_setkey
                0x10088284                mbedtls_des_setkey_enc
                0x100882b4                mbedtls_des_setkey_dec
                0x10088504                mbedtls_des3_set2key_enc
                0x10088548                mbedtls_des3_set2key_dec
                0x100886d0                mbedtls_des3_set3key_enc
                0x10088714                mbedtls_des3_set3key_dec
                0x10088758                mbedtls_des_crypt_ecb
                0x10088c84                mbedtls_des_crypt_cbc
                0x10088e68                mbedtls_des3_crypt_ecb
                0x1008973c                mbedtls_des3_crypt_cbc
                0x10089920                mbedtls_des_self_test
 .text          0x10089efc     0x1838 obj_emsk_22/gnu_arcem7d/middleware/mbedtls/library/md5.o
                0x10089f40                mbedtls_md5_init
                0x10089f68                mbedtls_md5_free
                0x10089f98                mbedtls_md5_clone
                0x10089fcc                mbedtls_md5_starts
                0x1008a024                mbedtls_md5_process
                0x1008b2ac                mbedtls_md5_update
                0x1008b3e0                mbedtls_md5_finish
                0x1008b5f8                mbedtls_md5
                0x1008b658                mbedtls_md5_self_test
 .text          0x1008b734      0x89c obj_emsk_22/gnu_arcem7d/middleware/mbedtls/library/pkcs5.o
                0x1008b8d0                mbedtls_pkcs5_pbes2
                0x1008bbc8                mbedtls_pkcs5_pbkdf2_hmac
                0x1008be40                mbedtls_pkcs5_self_test
 .text          0x1008bfd0     0x1df8 obj_emsk_22/gnu_arcem7d/middleware/mbedtls/library/gcm.o
                0x1008c014                mbedtls_gcm_init
                0x1008c414                mbedtls_gcm_setkey
                0x1008c98c                mbedtls_gcm_starts
                0x1008cd00                mbedtls_gcm_update
                0x1008cfc4                mbedtls_gcm_finish
                0x1008d324                mbedtls_gcm_crypt_and_tag
                0x1008d3d8                mbedtls_gcm_auth_decrypt
                0x1008d4c0                mbedtls_gcm_free
                0x1008d4f0                mbedtls_gcm_self_test
 .text          0x1008ddc8     0x1d44 obj_emsk_22/gnu_arcem7d/middleware/mbedtls/library/sha256.o
                0x1008de0c                mbedtls_sha256_init
                0x1008de34                mbedtls_sha256_free
                0x1008de64                mbedtls_sha256_clone
                0x1008de98                mbedtls_sha256_starts
                0x1008df98                mbedtls_sha256_process
                0x1008f41c                mbedtls_sha256_update
                0x1008f550                mbedtls_sha256_finish
                0x1008f8a0                mbedtls_sha256
                0x1008f908                mbedtls_sha256_self_test
 .text          0x1008fb0c     0x6014 obj_emsk_22/gnu_arcem7d/middleware/mbedtls/library/ssl_srv.o
                0x1008fcd4                mbedtls_ssl_set_client_transport_id
                0x1008fd6c                mbedtls_ssl_conf_dtls_cookies
                0x100958dc                mbedtls_ssl_handshake_server_step
 .text          0x10095b20      0xcc8 obj_emsk_22/gnu_arcem7d/middleware/mbedtls/library/ecdsa.o
                0x10095c04                mbedtls_ecdsa_sign
                0x10095f24                mbedtls_ecdsa_sign_det
                0x1009606c                mbedtls_ecdsa_verify
                0x1009643c                mbedtls_ecdsa_write_signature
                0x100964fc                mbedtls_ecdsa_write_signature_det
                0x1009654c                mbedtls_ecdsa_read_signature
                0x100966a8                mbedtls_ecdsa_genkey
                0x10096714                mbedtls_ecdsa_from_keypair
                0x100967a0                mbedtls_ecdsa_init
                0x100967c4                mbedtls_ecdsa_free
 .text          0x100967e8      0x758 obj_emsk_22/gnu_arcem7d/middleware/mbedtls/library/md_wrap.o
 .text          0x10096f40      0xb60 obj_emsk_22/gnu_arcem7d/middleware/mbedtls/library/hmac_drbg.o
                0x10096f84                mbedtls_hmac_drbg_init
                0x10096fbc                mbedtls_hmac_drbg_update
                0x100970cc                mbedtls_hmac_drbg_seed_buf
                0x10097170                mbedtls_hmac_drbg_reseed
                0x10097258                mbedtls_hmac_drbg_seed
                0x10097360                mbedtls_hmac_drbg_set_prediction_resistance
                0x10097384                mbedtls_hmac_drbg_set_entropy_len
                0x100973a8                mbedtls_hmac_drbg_set_reseed_interval
                0x100973cc                mbedtls_hmac_drbg_random_with_add
                0x10097558                mbedtls_hmac_drbg_random
                0x100975e4                mbedtls_hmac_drbg_free
                0x10097630                mbedtls_hmac_drbg_write_seed_file
                0x100976cc                mbedtls_hmac_drbg_update_seed_file
                0x10097800                mbedtls_hmac_drbg_self_test
 .text          0x10097aa0      0x2c8 obj_emsk_22/gnu_arcem7d/middleware/u8glib/csrc/u8g_com_embarc_ssd1306_i2c.o
                0x10097c38                u8g_com_embarc_ssd_i2c_fn_sel
                0x10097d20                u8g_com_embarc_ssd_i2c_fn
 .text          0x10097d68      0x380 obj_emsk_22/gnu_arcem7d/middleware/u8glib/csrc/u8g_com_api.o
                0x10097d68                u8g_InitCom
                0x10097da4                u8g_StopCom
                0x10097dd8                u8g_SetChipSelect
                0x10097e14                u8g_SetResetLow
                0x10097e48                u8g_SetResetHigh
                0x10097e7c                u8g_SetAddress
                0x10097eb8                u8g_WriteByte
                0x10097ef4                u8g_WriteSequence
                0x10097f38                u8g_WriteSequenceP
                0x10097f7c                u8g_WriteEscSeqP
 .text          0x100980e8      0x120 obj_emsk_22/gnu_arcem7d/middleware/u8glib/csrc/u8g_page.o
                0x100980e8                u8g_page_Init
                0x10098138                u8g_page_First
                0x1009817c                u8g_page_Next
 .text          0x10098208     0x2bdc obj_emsk_22/gnu_arcem7d/middleware/lwip/src/api/api_msg.o
                0x10098dfc                lwip_netconn_do_newconn
                0x10098e74                netconn_alloc
                0x10098fb4                netconn_free
                0x100995f4                lwip_netconn_do_delconn
                0x100998c4                lwip_netconn_do_bind
                0x10099ba4                lwip_netconn_do_connect
                0x10099e28                lwip_netconn_do_disconnect
                0x10099eb8                lwip_netconn_do_listen
                0x1009a0a4                lwip_netconn_do_send
                0x1009a22c                lwip_netconn_do_recv
                0x1009a7a0                lwip_netconn_do_write
                0x1009a978                lwip_netconn_do_getaddr
                0x1009ab40                lwip_netconn_do_close
                0x1009ad64                lwip_netconn_do_gethostbyname
 .text          0x1009ade4     0x3774 obj_emsk_22/gnu_arcem7d/middleware/mbedtls/library/ripemd160.o
                0x1009ae28                mbedtls_ripemd160_init
                0x1009ae50                mbedtls_ripemd160_free
                0x1009ae80                mbedtls_ripemd160_clone
                0x1009aeb4                mbedtls_ripemd160_starts
                0x1009af18                mbedtls_ripemd160_process
                0x1009e06c                mbedtls_ripemd160_update
                0x1009e1a0                mbedtls_ripemd160_finish
                0x1009e404                mbedtls_ripemd160
                0x1009e464                mbedtls_ripemd160_self_test
 .text          0x1009e558     0x1d78 obj_emsk_22/gnu_arcem7d/middleware/mbedtls/library/camellia.o
                0x1009e6f0                mbedtls_camellia_init
                0x1009e718                mbedtls_camellia_free
                0x1009e748                mbedtls_camellia_setkey_enc
                0x1009f298                mbedtls_camellia_setkey_dec
                0x1009f478                mbedtls_camellia_crypt_ecb
                0x1009f880                mbedtls_camellia_crypt_cbc
                0x1009fa0c                mbedtls_camellia_crypt_cfb128
                0x1009fb5c                mbedtls_camellia_crypt_ctr
                0x1009fc54                mbedtls_camellia_self_test
 .text          0x100a02d0      0xe9c obj_emsk_22/gnu_arcem7d/middleware/mbedtls/library/asn1write.o
                0x100a02d0                mbedtls_asn1_write_len
                0x100a059c                mbedtls_asn1_write_tag
                0x100a05f0                mbedtls_asn1_write_raw_buffer
                0x100a067c                mbedtls_asn1_write_mpi
                0x100a07dc                mbedtls_asn1_write_null
                0x100a0868                mbedtls_asn1_write_oid
                0x100a0934                mbedtls_asn1_write_algorithm_identifier
                0x100a0a4c                mbedtls_asn1_write_bool
                0x100a0b2c                mbedtls_asn1_write_int
                0x100a0c54                mbedtls_asn1_write_printable_string
                0x100a0d20                mbedtls_asn1_write_ia5_string
                0x100a0dec                mbedtls_asn1_write_bitstring
                0x100a0f30                mbedtls_asn1_write_octet_string
                0x100a0ffc                mbedtls_asn1_store_named_data
 .text          0x100a116c      0xb04 obj_emsk_22/gnu_arcem7d/middleware/mbedtls/library/blowfish.o
                0x100a1454                mbedtls_blowfish_init
                0x100a1480                mbedtls_blowfish_free
                0x100a14b4                mbedtls_blowfish_setkey
                0x100a1700                mbedtls_blowfish_crypt_ecb
                0x100a183c                mbedtls_blowfish_crypt_cbc
                0x100a1a28                mbedtls_blowfish_crypt_cfb64
                0x100a1b78                mbedtls_blowfish_crypt_ctr
 .text          0x100a1c70       0x10 d:/arc_gnu/bin/../lib/gcc/arc-elf32/7.1.1/../../../../arc-elf32/lib/em4_dmips\libc.a(lib_a-atoi.o)
                0x100a1c70                atoi
                0x100a1c78                _atoi_r
 .text          0x100a1c80        0xc d:/arc_gnu/bin/../lib/gcc/arc-elf32/7.1.1/../../../../arc-elf32/lib/em4_dmips\libc.a(lib_a-calloc.o)
                0x100a1c80                calloc
 .text          0x100a1c8c       0x84 d:/arc_gnu/bin/../lib/gcc/arc-elf32/7.1.1/../../../../arc-elf32/lib/em4_dmips\libc.a(lib_a-callocr.o)
                0x100a1c8c                _calloc_r
 .text          0x100a1d10       0xb0 d:/arc_gnu/bin/../lib/gcc/arc-elf32/7.1.1/../../../../arc-elf32/lib/em4_dmips\libc.a(lib_a-fclose.o)
                0x100a1d10                _fclose_r
                0x100a1db8                fclose
 .text          0x100a1dc0      0x1f4 d:/arc_gnu/bin/../lib/gcc/arc-elf32/7.1.1/../../../../arc-elf32/lib/em4_dmips\libc.a(lib_a-fflush.o)
                0x100a1dc0                __sflush_r
                0x100a1f50                _fflush_r
                0x100a1f94                fflush
 .text          0x100a1fb4      0x104 d:/arc_gnu/bin/../lib/gcc/arc-elf32/7.1.1/../../../../arc-elf32/lib/em4_dmips\libc.a(lib_a-fgets.o)
                0x100a1fb4                _fgets_r
                0x100a20ac                fgets
 .text          0x100a20b8      0x26c d:/arc_gnu/bin/../lib/gcc/arc-elf32/7.1.1/../../../../arc-elf32/lib/em4_dmips\libc.a(lib_a-findfp.o)
                0x100a20bc                _cleanup_r
                0x100a21ec                __sfmoreglue
                0x100a2234                __sfp
                0x100a22dc                _cleanup
                0x100a22f0                __sinit
                0x100a22fc                __sfp_lock_acquire
                0x100a2300                __sfp_lock_release
                0x100a2304                __sinit_lock_acquire
                0x100a2308                __sinit_lock_release
                0x100a230c                __fp_lock_all
                0x100a2318                __fp_unlock_all
 .text          0x100a2324       0xb8 d:/arc_gnu/bin/../lib/gcc/arc-elf32/7.1.1/../../../../arc-elf32/lib/em4_dmips\libc.a(lib_a-fopen.o)
                0x100a2324                _fopen_r
                0x100a23d0                fopen
 .text          0x100a23dc       0x50 d:/arc_gnu/bin/../lib/gcc/arc-elf32/7.1.1/../../../../arc-elf32/lib/em4_dmips\libc.a(lib_a-fprintf.o)
                0x100a23dc                _fprintf_r
                0x100a2400                fprintf
 .text          0x100a242c      0x1a8 d:/arc_gnu/bin/../lib/gcc/arc-elf32/7.1.1/../../../../arc-elf32/lib/em4_dmips\libc.a(lib_a-fread.o)
                0x100a242c                _fread_r
                0x100a25c4                fread
 .text          0x100a25d4      0x3d0 d:/arc_gnu/bin/../lib/gcc/arc-elf32/7.1.1/../../../../arc-elf32/lib/em4_dmips\libc.a(lib_a-freer.o)
                0x100a25d4                _malloc_trim_r
                0x100a26a8                _free_r
 .text          0x100a29a4       0x10 d:/arc_gnu/bin/../lib/gcc/arc-elf32/7.1.1/../../../../arc-elf32/lib/em4_dmips\libc.a(lib_a-fseek.o)
                0x100a29a4                _fseek_r
                0x100a29a8                fseek
 .text          0x100a29b4      0x344 d:/arc_gnu/bin/../lib/gcc/arc-elf32/7.1.1/../../../../arc-elf32/lib/em4_dmips\libc.a(lib_a-fseeko.o)
                0x100a29b4                _fseeko_r
                0x100a2cec                fseeko
 .text          0x100a2cf8       0x3c d:/arc_gnu/bin/../lib/gcc/arc-elf32/7.1.1/../../../../arc-elf32/lib/em4_dmips\libc.a(lib_a-fstatr.o)
                0x100a2cf8                _fstat_r
 .text          0x100a2d34        0xc d:/arc_gnu/bin/../lib/gcc/arc-elf32/7.1.1/../../../../arc-elf32/lib/em4_dmips\libc.a(lib_a-ftell.o)
                0x100a2d34                _ftell_r
                0x100a2d38                ftell
 .text          0x100a2d40       0xa4 d:/arc_gnu/bin/../lib/gcc/arc-elf32/7.1.1/../../../../arc-elf32/lib/em4_dmips\libc.a(lib_a-ftello.o)
                0x100a2d40                _ftello_r
                0x100a2ddc                ftello
 .text          0x100a2de4      0x10c d:/arc_gnu/bin/../lib/gcc/arc-elf32/7.1.1/../../../../arc-elf32/lib/em4_dmips\libc.a(lib_a-fwalk.o)
                0x100a2de4                _fwalk
                0x100a2e64                _fwalk_reent
 .text          0x100a2ef0       0xa0 d:/arc_gnu/bin/../lib/gcc/arc-elf32/7.1.1/../../../../arc-elf32/lib/em4_dmips\libc.a(lib_a-fwrite.o)
                0x100a2ef0                _fwrite_r
                0x100a2f80                fwrite
 .text          0x100a2f90        0x8 d:/arc_gnu/bin/../lib/gcc/arc-elf32/7.1.1/../../../../arc-elf32/lib/em4_dmips\libc.a(lib_a-gmtime.o)
                0x100a2f90                gmtime
 .text          0x100a2f98      0x1e4 d:/arc_gnu/bin/../lib/gcc/arc-elf32/7.1.1/../../../../arc-elf32/lib/em4_dmips\libc.a(lib_a-gmtime_r.o)
                0x100a2f98                gmtime_r
 .text          0x100a317c        0x0 d:/arc_gnu/bin/../lib/gcc/arc-elf32/7.1.1/../../../../arc-elf32/lib/em4_dmips\libc.a(lib_a-impure.o)
 .text          0x100a317c        0x8 d:/arc_gnu/bin/../lib/gcc/arc-elf32/7.1.1/../../../../arc-elf32/lib/em4_dmips\libc.a(lib_a-lcltime.o)
                0x100a317c                localtime
 .text          0x100a3184      0x2e8 d:/arc_gnu/bin/../lib/gcc/arc-elf32/7.1.1/../../../../arc-elf32/lib/em4_dmips\libc.a(lib_a-lcltime_r.o)
                0x100a3184                localtime_r
 .text          0x100a346c      0x144 d:/arc_gnu/bin/../lib/gcc/arc-elf32/7.1.1/../../../../arc-elf32/lib/em4_dmips\libc.a(lib_a-makebuf.o)
                0x100a346c                __swhatbuf_r
                0x100a34fc                __smakebuf_r
 .text          0x100a35b0       0x10 d:/arc_gnu/bin/../lib/gcc/arc-elf32/7.1.1/../../../../arc-elf32/lib/em4_dmips\libc.a(lib_a-malloc.o)
                0x100a35b0                malloc
                0x100a35b8                free
 .text          0x100a35c0      0x6ac d:/arc_gnu/bin/../lib/gcc/arc-elf32/7.1.1/../../../../arc-elf32/lib/em4_dmips\libc.a(lib_a-mallocr.o)
                0x100a35c0                _malloc_r
 .text          0x100a3c6c       0xc8 d:/arc_gnu/bin/../lib/gcc/arc-elf32/7.1.1/../../../../arc-elf32/lib/em4_dmips\libc.a(lib_a-memchr.o)
                0x100a3c6c                memchr
 .text          0x100a3d34       0xf8 d:/arc_gnu/bin/../lib/gcc/arc-elf32/7.1.1/../../../../arc-elf32/lib/em4_dmips\libc.a(lib_a-memcmp-bs-norm.o)
                0x100a3d34                memcmp
 .text          0x100a3e2c       0x80 d:/arc_gnu/bin/../lib/gcc/arc-elf32/7.1.1/../../../../arc-elf32/lib/em4_dmips\libc.a(lib_a-memcpy-bs.o)
                0x100a3e2c                memcpy
 .text          0x100a3eac       0xf0 d:/arc_gnu/bin/../lib/gcc/arc-elf32/7.1.1/../../../../arc-elf32/lib/em4_dmips\libc.a(lib_a-memmove.o)
                0x100a3eac                memmove
 .text          0x100a3f9c       0x6c d:/arc_gnu/bin/../lib/gcc/arc-elf32/7.1.1/../../../../arc-elf32/lib/em4_dmips\libc.a(lib_a-memset-bs.o)
                0x100a3f9c                memset
                0x100a3ff0                __strncpy_bzero
 .text          0x100a4008        0x8 d:/arc_gnu/bin/../lib/gcc/arc-elf32/7.1.1/../../../../arc-elf32/lib/em4_dmips\libc.a(lib_a-mlock.o)
                0x100a4008                __malloc_lock
                0x100a400c                __malloc_unlock
 .text          0x100a4010        0x0 d:/arc_gnu/bin/../lib/gcc/arc-elf32/7.1.1/../../../../arc-elf32/lib/em4_dmips\libc.a(lib_a-month_lengths.o)
 .text          0x100a4010       0x40 d:/arc_gnu/bin/../lib/gcc/arc-elf32/7.1.1/../../../../arc-elf32/lib/em4_dmips\libc.a(lib_a-openr.o)
                0x100a4010                _open_r
 .text          0x100a4050       0x60 d:/arc_gnu/bin/../lib/gcc/arc-elf32/7.1.1/../../../../arc-elf32/lib/em4_dmips\libc.a(lib_a-printf.o)
                0x100a4050                _printf_r
                0x100a407c                printf
 .text          0x100a40b0       0x18 d:/arc_gnu/bin/../lib/gcc/arc-elf32/7.1.1/../../../../arc-elf32/lib/em4_dmips\libc.a(lib_a-putchar.o)
                0x100a40b0                _putchar_r
                0x100a40b8                putchar
 .text          0x100a40c8       0x84 d:/arc_gnu/bin/../lib/gcc/arc-elf32/7.1.1/../../../../arc-elf32/lib/em4_dmips\libc.a(lib_a-puts.o)
                0x100a40c8                _puts_r
                0x100a4144                puts
 .text          0x100a414c       0x58 d:/arc_gnu/bin/../lib/gcc/arc-elf32/7.1.1/../../../../arc-elf32/lib/em4_dmips\libc.a(lib_a-rand.o)
                0x100a414c                srand
                0x100a415c                rand
 .text          0x100a41a4       0xd0 d:/arc_gnu/bin/../lib/gcc/arc-elf32/7.1.1/../../../../arc-elf32/lib/em4_dmips\libc.a(lib_a-reent.o)
                0x100a41a4                cleanup_glue
                0x100a41cc                _reclaim_reent
 .text          0x100a4274      0x158 d:/arc_gnu/bin/../lib/gcc/arc-elf32/7.1.1/../../../../arc-elf32/lib/em4_dmips\libc.a(lib_a-refill.o)
                0x100a4288                __srefill_r
 .text          0x100a43cc       0x3c d:/arc_gnu/bin/../lib/gcc/arc-elf32/7.1.1/../../../../arc-elf32/lib/em4_dmips\libc.a(lib_a-sbrkr.o)
                0x100a43cc                _sbrk_r
 .text          0x100a4408      0x150 d:/arc_gnu/bin/../lib/gcc/arc-elf32/7.1.1/../../../../arc-elf32/lib/em4_dmips\libc.a(lib_a-snprintf.o)
                0x100a4408                _snprintf_r
                0x100a44b4                snprintf
 .text          0x100a4558       0x98 d:/arc_gnu/bin/../lib/gcc/arc-elf32/7.1.1/../../../../arc-elf32/lib/em4_dmips\libc.a(lib_a-sprintf.o)
                0x100a4558                _sprintf_r
                0x100a45a0                sprintf
 .text          0x100a45f0       0xc8 d:/arc_gnu/bin/../lib/gcc/arc-elf32/7.1.1/../../../../arc-elf32/lib/em4_dmips\libc.a(lib_a-stdio.o)
                0x100a45f0                __sread
                0x100a4624                __seofread
                0x100a4628                __swrite
                0x100a4678                __sseek
                0x100a46b0                __sclose
 .text          0x100a46b8       0x60 d:/arc_gnu/bin/../lib/gcc/arc-elf32/7.1.1/../../../../arc-elf32/lib/em4_dmips\libc.a(lib_a-strcat.o)
                0x100a46b8                strcat
 .text          0x100a4718       0x90 d:/arc_gnu/bin/../lib/gcc/arc-elf32/7.1.1/../../../../arc-elf32/lib/em4_dmips\libc.a(lib_a-strcmp.o)
                0x100a4718                strcmp
 .text          0x100a47a8       0x7c d:/arc_gnu/bin/../lib/gcc/arc-elf32/7.1.1/../../../../arc-elf32/lib/em4_dmips\libc.a(lib_a-strcpy-bs.o)
                0x100a47a8                strcpy
 .text          0x100a4824       0x88 d:/arc_gnu/bin/../lib/gcc/arc-elf32/7.1.1/../../../../arc-elf32/lib/em4_dmips\libc.a(lib_a-strlen-bs-norm.o)
                0x100a4824                strlen
 .text          0x100a48ac       0xa8 d:/arc_gnu/bin/../lib/gcc/arc-elf32/7.1.1/../../../../arc-elf32/lib/em4_dmips\libc.a(lib_a-strncmp.o)
                0x100a48ac                strncmp
 .text          0x100a4954       0xfc d:/arc_gnu/bin/../lib/gcc/arc-elf32/7.1.1/../../../../arc-elf32/lib/em4_dmips\libc.a(lib_a-strncpy-bs.o)
                0x100a4954                strncpy
 .text          0x100a4a50      0x5f4 d:/arc_gnu/bin/../lib/gcc/arc-elf32/7.1.1/../../../../arc-elf32/lib/em4_dmips\libc.a(lib_a-strstr.o)
                0x100a4dc4                strstr
 .text          0x100a5044      0x200 d:/arc_gnu/bin/../lib/gcc/arc-elf32/7.1.1/../../../../arc-elf32/lib/em4_dmips\libc.a(lib_a-strtol.o)
                0x100a51fc                _strtol_r
                0x100a5214                strtol_l
                0x100a5224                strtol
 .text          0x100a5244     0x16e4 d:/arc_gnu/bin/../lib/gcc/arc-elf32/7.1.1/../../../../arc-elf32/lib/em4_dmips\libc.a(lib_a-svfprintf.o)
                0x100a5244                _svfprintf_r
 .text          0x100a6928        0xc d:/arc_gnu/bin/../lib/gcc/arc-elf32/7.1.1/../../../../arc-elf32/lib/em4_dmips\libc.a(lib_a-sysstat.o)
                0x100a6928                stat
 .text          0x100a6934       0x34 d:/arc_gnu/bin/../lib/gcc/arc-elf32/7.1.1/../../../../arc-elf32/lib/em4_dmips\libc.a(lib_a-time.o)
                0x100a6934                time
 .text          0x100a6968      0x1e8 d:/arc_gnu/bin/../lib/gcc/arc-elf32/7.1.1/../../../../arc-elf32/lib/em4_dmips\libc.a(lib_a-tzcalc_limits.o)
                0x100a6968                __tzcalc_limits
 .text          0x100a6b50        0x8 d:/arc_gnu/bin/../lib/gcc/arc-elf32/7.1.1/../../../../arc-elf32/lib/em4_dmips\libc.a(lib_a-tzlock.o)
                0x100a6b50                __tz_lock
                0x100a6b54                __tz_unlock
 .text          0x100a6b58       0x1c d:/arc_gnu/bin/../lib/gcc/arc-elf32/7.1.1/../../../../arc-elf32/lib/em4_dmips\libc.a(lib_a-tzset.o)
                0x100a6b58                _tzset_unlocked
                0x100a6b60                tzset
 .text          0x100a6b74      0x3d8 d:/arc_gnu/bin/../lib/gcc/arc-elf32/7.1.1/../../../../arc-elf32/lib/em4_dmips\libc.a(lib_a-tzset_r.o)
                0x100a6b74                _tzset_unlocked_r
                0x100a6f2c                _tzset_r
 .text          0x100a6f4c        0x0 d:/arc_gnu/bin/../lib/gcc/arc-elf32/7.1.1/../../../../arc-elf32/lib/em4_dmips\libc.a(lib_a-tzvars.o)
 .text          0x100a6f4c     0x17e8 d:/arc_gnu/bin/../lib/gcc/arc-elf32/7.1.1/../../../../arc-elf32/lib/em4_dmips\libc.a(lib_a-vfprintf.o)
                0x100a6f4c                _vfprintf_r
                0x100a8688                vfprintf
 .text          0x100a8734       0xac d:/arc_gnu/bin/../lib/gcc/arc-elf32/7.1.1/../../../../arc-elf32/lib/em4_dmips\libc.a(lib_a-vsnprintf.o)
                0x100a8734                _vsnprintf_r
                0x100a87d0                vsnprintf
 .text          0x100a87e0       0x40 d:/arc_gnu/bin/../lib/gcc/arc-elf32/7.1.1/../../../../arc-elf32/lib/em4_dmips\libc.a(lib_a-writer.o)
                0x100a87e0                _write_r
 .text          0x100a8820       0xe8 d:/arc_gnu/bin/../lib/gcc/arc-elf32/7.1.1/../../../../arc-elf32/lib/em4_dmips\libc.a(lib_a-wsetup.o)
                0x100a8820                __swsetup_r
 .text          0x100a8908       0x3c d:/arc_gnu/bin/../lib/gcc/arc-elf32/7.1.1/../../../../arc-elf32/lib/em4_dmips\libc.a(lib_a-closer.o)
                0x100a8908                _close_r
 .text          0x100a8944     0x1144 d:/arc_gnu/bin/../lib/gcc/arc-elf32/7.1.1/../../../../arc-elf32/lib/em4_dmips\libc.a(lib_a-dtoa.o)
                0x100a8ac0                _dtoa_r
 .text          0x100a9a88       0x80 d:/arc_gnu/bin/../lib/gcc/arc-elf32/7.1.1/../../../../arc-elf32/lib/em4_dmips\libc.a(lib_a-flags.o)
                0x100a9a88                __sflags
 .text          0x100a9b08      0x378 d:/arc_gnu/bin/../lib/gcc/arc-elf32/7.1.1/../../../../arc-elf32/lib/em4_dmips\libc.a(lib_a-fvwrite.o)
                0x100a9b08                __sfvwrite_r
 .text          0x100a9e80       0xbc d:/arc_gnu/bin/../lib/gcc/arc-elf32/7.1.1/../../../../arc-elf32/lib/em4_dmips\libc.a(lib_a-getenv_r.o)
                0x100a9e80                _findenv_r
                0x100a9f28                _getenv_r
 .text          0x100a9f3c       0x3c d:/arc_gnu/bin/../lib/gcc/arc-elf32/7.1.1/../../../../arc-elf32/lib/em4_dmips\libc.a(lib_a-gettimeofdayr.o)
                0x100a9f3c                _gettimeofday_r
 .text          0x100a9f78        0x8 d:/arc_gnu/bin/../lib/gcc/arc-elf32/7.1.1/../../../../arc-elf32/lib/em4_dmips\libc.a(lib_a-gettzinfo.o)
                0x100a9f78                __gettzinfo
 .text          0x100a9f80       0x3c d:/arc_gnu/bin/../lib/gcc/arc-elf32/7.1.1/../../../../arc-elf32/lib/em4_dmips\libc.a(lib_a-isattyr.o)
                0x100a9f80                _isatty_r
 .text          0x100a9fbc       0x98 d:/arc_gnu/bin/../lib/gcc/arc-elf32/7.1.1/../../../../arc-elf32/lib/em4_dmips\libc.a(lib_a-locale.o)
                0x100a9fbc                _setlocale_r
                0x100aa00c                __locale_mb_cur_max
                0x100aa028                __locale_ctype_ptr_l
                0x100aa030                __locale_ctype_ptr
                0x100aa048                setlocale
 .text          0x100aa054       0x38 d:/arc_gnu/bin/../lib/gcc/arc-elf32/7.1.1/../../../../arc-elf32/lib/em4_dmips\libc.a(lib_a-localeconv.o)
                0x100aa054                __localeconv_l
                0x100aa05c                _localeconv_r
                0x100aa074                localeconv
 .text          0x100aa08c       0x40 d:/arc_gnu/bin/../lib/gcc/arc-elf32/7.1.1/../../../../arc-elf32/lib/em4_dmips\libc.a(lib_a-lseekr.o)
                0x100aa08c                _lseek_r
 .text          0x100aa0cc       0x64 d:/arc_gnu/bin/../lib/gcc/arc-elf32/7.1.1/../../../../arc-elf32/lib/em4_dmips\libc.a(lib_a-mbtowc_r.o)
                0x100aa0cc                _mbtowc_r
                0x100aa0e8                __ascii_mbtowc
 .text          0x100aa130      0xbdc d:/arc_gnu/bin/../lib/gcc/arc-elf32/7.1.1/../../../../arc-elf32/lib/em4_dmips\libc.a(lib_a-mprec.o)
                0x100aa130                _Balloc
                0x100aa1a0                _Bfree
                0x100aa1b4                __multadd
                0x100aa274                __s2b
                0x100aa34c                __hi0bits
                0x100aa394                __lo0bits
                0x100aa40c                __i2b
                0x100aa42c                __multiply
                0x100aa5d0                __pow5mult
                0x100aa6ac                __lshift
                0x100aa7ac                __mcmp
                0x100aa7f0                __mdiff
                0x100aa944                __ulp
                0x100aa99c                __b2d
                0x100aaa84                __d2b
                0x100aab70                __ratio
                0x100aabec                _mprec_log10
                0x100aac44                __copybits
                0x100aacb0                __any_on
 .text          0x100aad0c       0xe8 d:/arc_gnu/bin/../lib/gcc/arc-elf32/7.1.1/../../../../arc-elf32/lib/em4_dmips\libc.a(lib_a-putc.o)
                0x100aad0c                _putc_r
                0x100aad80                putc
 .text          0x100aadf4       0x40 d:/arc_gnu/bin/../lib/gcc/arc-elf32/7.1.1/../../../../arc-elf32/lib/em4_dmips\libc.a(lib_a-readr.o)
                0x100aadf4                _read_r
 .text          0x100aae34      0x488 d:/arc_gnu/bin/../lib/gcc/arc-elf32/7.1.1/../../../../arc-elf32/lib/em4_dmips\libc.a(lib_a-reallocr.o)
                0x100aae34                _realloc_r
 .text          0x100ab2bc       0xc8 d:/arc_gnu/bin/../lib/gcc/arc-elf32/7.1.1/../../../../arc-elf32/lib/em4_dmips\libc.a(lib_a-siscanf.o)
                0x100ab2bc                siscanf
                0x100ab31c                _siscanf_r
 .text          0x100ab384       0x3c d:/arc_gnu/bin/../lib/gcc/arc-elf32/7.1.1/../../../../arc-elf32/lib/em4_dmips\libc.a(lib_a-statr.o)
                0x100ab384                _stat_r
 .text          0x100ab3c0       0xcc d:/arc_gnu/bin/../lib/gcc/arc-elf32/7.1.1/../../../../arc-elf32/lib/em4_dmips\libc.a(lib_a-strchr-bs-norm.o)
                0x100ab3c0                strchr
 .text          0x100ab48c      0x218 d:/arc_gnu/bin/../lib/gcc/arc-elf32/7.1.1/../../../../arc-elf32/lib/em4_dmips\libc.a(lib_a-strtoul.o)
                0x100ab65c                _strtoul_r
                0x100ab674                strtoul_l
                0x100ab684                strtoul
 .text          0x100ab6a4      0xcf8 d:/arc_gnu/bin/../lib/gcc/arc-elf32/7.1.1/../../../../arc-elf32/lib/em4_dmips\libc.a(lib_a-svfiprintf.o)
                0x100ab6a4                __ssprint_r
                0x100ab7ec                _svfiprintf_r
 .text          0x100ac39c      0xb60 d:/arc_gnu/bin/../lib/gcc/arc-elf32/7.1.1/../../../../arc-elf32/lib/em4_dmips\libc.a(lib_a-svfiscanf.o)
                0x100ac39c                _sungetc_r
                0x100ac458                __ssrefill_r
                0x100ac4a0                _sfread_r
                0x100ac554                __ssvfiscanf_r
 .text          0x100acefc      0x1a0 d:/arc_gnu/bin/../lib/gcc/arc-elf32/7.1.1/../../../../arc-elf32/lib/em4_dmips\libc.a(lib_a-ungetc.o)
                0x100acefc                __submore
                0x100acfa0                _ungetc_r
                0x100ad090                ungetc
 .text          0x100ad09c      0xe28 d:/arc_gnu/bin/../lib/gcc/arc-elf32/7.1.1/../../../../arc-elf32/lib/em4_dmips\libc.a(lib_a-vfiprintf.o)
                0x100ad160                __sprint_r
                0x100ad174                _vfiprintf_r
                0x100ade18                vfiprintf
 .text          0x100adec4       0xf0 d:/arc_gnu/bin/../lib/gcc/arc-elf32/7.1.1/../../../../arc-elf32/lib/em4_dmips\libc.a(lib_a-wbuf.o)
                0x100adec4                __swbuf_r
                0x100adfa8                __swbuf
 .text          0x100adfb4       0x44 d:/arc_gnu/bin/../lib/gcc/arc-elf32/7.1.1/../../../../arc-elf32/lib/em4_dmips\libc.a(lib_a-wctomb_r.o)
                0x100adfb4                _wctomb_r
                0x100adfd0                __ascii_wctomb
 .text          0x100adff8        0x0 d:/arc_gnu/bin/../lib/gcc/arc-elf32/7.1.1/../../../../arc-elf32/lib/em4_dmips\libc.a(lib_a-ctype_.o)
 .text          0x100adff8        0x0 d:/arc_gnu/bin/../lib/gcc/arc-elf32/7.1.1/../../../../arc-elf32/lib/em4_dmips\libc.a(lib_a-environ.o)
 .text          0x100adff8        0x8 d:/arc_gnu/bin/../lib/gcc/arc-elf32/7.1.1/../../../../arc-elf32/lib/em4_dmips\libc.a(lib_a-envlock.o)
                0x100adff8                __env_lock
                0x100adffc                __env_unlock
 .text          0x100ae000      0x138 d:/arc_gnu/bin/../lib/gcc/arc-elf32/7.1.1/../../../../arc-elf32/lib/em4_dmips\libc.a(lib_a-fputwc.o)
                0x100ae000                __fputwc
                0x100ae0c8                _fputwc_r
                0x100ae0e4                fputwc
 .text          0x100ae138       0x2c d:/arc_gnu/bin/../lib/gcc/arc-elf32/7.1.1/../../../../arc-elf32/lib/em4_dmips\libc.a(lib_a-iswspace.o)
                0x100ae138                iswspace
 .text          0x100ae164      0x100 d:/arc_gnu/bin/../lib/gcc/arc-elf32/7.1.1/../../../../arc-elf32/lib/em4_dmips\libc.a(lib_a-mbrtowc.o)
                0x100ae164                _mbrtowc_r
                0x100ae1e4                mbrtowc
 .text          0x100ae264       0xbc d:/arc_gnu/bin/../lib/gcc/arc-elf32/7.1.1/../../../../arc-elf32/lib/em4_dmips\libc.a(lib_a-sccl.o)
                0x100ae264                __sccl
 .text          0x100ae320      0x290 d:/arc_gnu/bin/../lib/gcc/arc-elf32/7.1.1/../../../../arc-elf32/lib/em4_dmips\libc.a(lib_a-strtoll.o)
                0x100ae568                _strtoll_r
                0x100ae580                strtoll_l
                0x100ae590                strtoll
 .text          0x100ae5b0      0x2b0 d:/arc_gnu/bin/../lib/gcc/arc-elf32/7.1.1/../../../../arc-elf32/lib/em4_dmips\libc.a(lib_a-strtoull.o)
                0x100ae818                _strtoull_r
                0x100ae830                strtoull_l
                0x100ae840                strtoull
 .text          0x100ae860       0xfc d:/arc_gnu/bin/../lib/gcc/arc-elf32/7.1.1/../../../../arc-elf32/lib/em4_dmips\libc.a(lib_a-wcrtomb.o)
                0x100ae860                _wcrtomb_r
                0x100ae8dc                wcrtomb
 .text          0x100ae95c        0x0 d:/arc_gnu/bin/../lib/gcc/arc-elf32/7.1.1/em4_dmips\libgcc.a(_udivdi3.o)
 .text.__udivdi3
                0x100ae95c      0x36c d:/arc_gnu/bin/../lib/gcc/arc-elf32/7.1.1/em4_dmips\libgcc.a(_udivdi3.o)
                0x100ae95c                __udivdi3
 .text          0x100aecc8        0x0 d:/arc_gnu/bin/../lib/gcc/arc-elf32/7.1.1/em4_dmips\libgcc.a(_umoddi3.o)
 .text.__umoddi3
                0x100aecc8      0x300 d:/arc_gnu/bin/../lib/gcc/arc-elf32/7.1.1/em4_dmips\libgcc.a(_umoddi3.o)
                0x100aecc8                __umoddi3
 .text          0x100aefc8        0x0 d:/arc_gnu/bin/../lib/gcc/arc-elf32/7.1.1/em4_dmips\libgcc.a(fp-bit.o)
 .text._fpadd_parts
                0x100aefc8      0x174 d:/arc_gnu/bin/../lib/gcc/arc-elf32/7.1.1/em4_dmips\libgcc.a(fp-bit.o)
 .text.__pack_f
                0x100af13c      0x100 d:/arc_gnu/bin/../lib/gcc/arc-elf32/7.1.1/em4_dmips\libgcc.a(fp-bit.o)
                0x100af13c                __pack_f
 .text.__unpack_f
                0x100af23c       0x90 d:/arc_gnu/bin/../lib/gcc/arc-elf32/7.1.1/em4_dmips\libgcc.a(fp-bit.o)
                0x100af23c                __unpack_f
 .text.__addsf3
                0x100af2cc       0x34 d:/arc_gnu/bin/../lib/gcc/arc-elf32/7.1.1/em4_dmips\libgcc.a(fp-bit.o)
                0x100af2cc                __addsf3
 .text.__subsf3
                0x100af300       0x3c d:/arc_gnu/bin/../lib/gcc/arc-elf32/7.1.1/em4_dmips\libgcc.a(fp-bit.o)
                0x100af300                __subsf3
 .text.__mulsf3
                0x100af33c      0x14c d:/arc_gnu/bin/../lib/gcc/arc-elf32/7.1.1/em4_dmips\libgcc.a(fp-bit.o)
                0x100af33c                __mulsf3
 .text.__divsf3
                0x100af488      0x104 d:/arc_gnu/bin/../lib/gcc/arc-elf32/7.1.1/em4_dmips\libgcc.a(fp-bit.o)
                0x100af488                __divsf3
 .text.__fpcmp_parts_f
                0x100af58c       0x90 d:/arc_gnu/bin/../lib/gcc/arc-elf32/7.1.1/em4_dmips\libgcc.a(fp-bit.o)
                0x100af58c                __fpcmp_parts_f
 .text.__cmpsf2
                0x100af61c       0x2c d:/arc_gnu/bin/../lib/gcc/arc-elf32/7.1.1/em4_dmips\libgcc.a(fp-bit.o)
                0x100af61c                __cmpsf2
 .text.__eqsf2  0x100af648       0x44 d:/arc_gnu/bin/../lib/gcc/arc-elf32/7.1.1/em4_dmips\libgcc.a(fp-bit.o)
                0x100af648                __eqsf2
 .text.__nesf2  0x100af68c        0x4 d:/arc_gnu/bin/../lib/gcc/arc-elf32/7.1.1/em4_dmips\libgcc.a(fp-bit.o)
                0x100af68c                __nesf2
 .text.__gtsf2  0x100af690       0x44 d:/arc_gnu/bin/../lib/gcc/arc-elf32/7.1.1/em4_dmips\libgcc.a(fp-bit.o)
                0x100af690                __gtsf2
 .text.__gesf2  0x100af6d4        0x4 d:/arc_gnu/bin/../lib/gcc/arc-elf32/7.1.1/em4_dmips\libgcc.a(fp-bit.o)
                0x100af6d4                __gesf2
 .text.__ltsf2  0x100af6d8        0x4 d:/arc_gnu/bin/../lib/gcc/arc-elf32/7.1.1/em4_dmips\libgcc.a(fp-bit.o)
                0x100af6d8                __ltsf2
 .text.__lesf2  0x100af6dc        0x4 d:/arc_gnu/bin/../lib/gcc/arc-elf32/7.1.1/em4_dmips\libgcc.a(fp-bit.o)
                0x100af6dc                __lesf2
 .text.__unordsf2
                0x100af6e0       0x3c d:/arc_gnu/bin/../lib/gcc/arc-elf32/7.1.1/em4_dmips\libgcc.a(fp-bit.o)
                0x100af6e0                __unordsf2
 .text.__floatsisf
                0x100af71c       0x70 d:/arc_gnu/bin/../lib/gcc/arc-elf32/7.1.1/em4_dmips\libgcc.a(fp-bit.o)
                0x100af71c                __floatsisf
 .text.__floatunsisf
                0x100af78c       0x84 d:/arc_gnu/bin/../lib/gcc/arc-elf32/7.1.1/em4_dmips\libgcc.a(fp-bit.o)
                0x100af78c                __floatunsisf
 .text.__fixsfsi
                0x100af810       0x74 d:/arc_gnu/bin/../lib/gcc/arc-elf32/7.1.1/em4_dmips\libgcc.a(fp-bit.o)
                0x100af810                __fixsfsi
 .text.__negsf2
                0x100af884       0x28 d:/arc_gnu/bin/../lib/gcc/arc-elf32/7.1.1/em4_dmips\libgcc.a(fp-bit.o)
                0x100af884                __negsf2
 .text.__make_fp
                0x100af8ac       0x1c d:/arc_gnu/bin/../lib/gcc/arc-elf32/7.1.1/em4_dmips\libgcc.a(fp-bit.o)
                0x100af8ac                __make_fp
 .text.__extendsfdf2
                0x100af8c8       0x30 d:/arc_gnu/bin/../lib/gcc/arc-elf32/7.1.1/em4_dmips\libgcc.a(fp-bit.o)
                0x100af8c8                __extendsfdf2
 .text          0x100af8f8        0x0 d:/arc_gnu/bin/../lib/gcc/arc-elf32/7.1.1/em4_dmips\libgcc.a(dp-bit.o)
 .text._fpadd_parts
                0x100af8f8      0x2f0 d:/arc_gnu/bin/../lib/gcc/arc-elf32/7.1.1/em4_dmips\libgcc.a(dp-bit.o)
 .text.__pack_d
                0x100afbe8      0x1bc d:/arc_gnu/bin/../lib/gcc/arc-elf32/7.1.1/em4_dmips\libgcc.a(dp-bit.o)
                0x100afbe8                __pack_d
 .text.__unpack_d
                0x100afda4       0xd0 d:/arc_gnu/bin/../lib/gcc/arc-elf32/7.1.1/em4_dmips\libgcc.a(dp-bit.o)
                0x100afda4                __unpack_d
 .text.__adddf3
                0x100afe74       0x34 d:/arc_gnu/bin/../lib/gcc/arc-elf32/7.1.1/em4_dmips\libgcc.a(dp-bit.o)
                0x100afe74                __adddf3
 .text.__subdf3
                0x100afea8       0x3c d:/arc_gnu/bin/../lib/gcc/arc-elf32/7.1.1/em4_dmips\libgcc.a(dp-bit.o)
                0x100afea8                __subdf3
 .text.__muldf3
                0x100afee4      0x23c d:/arc_gnu/bin/../lib/gcc/arc-elf32/7.1.1/em4_dmips\libgcc.a(dp-bit.o)
                0x100afee4                __muldf3
 .text.__divdf3
                0x100b0120      0x170 d:/arc_gnu/bin/../lib/gcc/arc-elf32/7.1.1/em4_dmips\libgcc.a(dp-bit.o)
                0x100b0120                __divdf3
 .text.__fpcmp_parts_d
                0x100b0290       0xa8 d:/arc_gnu/bin/../lib/gcc/arc-elf32/7.1.1/em4_dmips\libgcc.a(dp-bit.o)
                0x100b0290                __fpcmp_parts_d
 .text.__cmpdf2
                0x100b0338       0x2c d:/arc_gnu/bin/../lib/gcc/arc-elf32/7.1.1/em4_dmips\libgcc.a(dp-bit.o)
                0x100b0338                __cmpdf2
 .text.__eqdf2  0x100b0364       0x44 d:/arc_gnu/bin/../lib/gcc/arc-elf32/7.1.1/em4_dmips\libgcc.a(dp-bit.o)
                0x100b0364                __eqdf2
 .text.__nedf2  0x100b03a8        0x4 d:/arc_gnu/bin/../lib/gcc/arc-elf32/7.1.1/em4_dmips\libgcc.a(dp-bit.o)
                0x100b03a8                __nedf2
 .text.__gtdf2  0x100b03ac       0x44 d:/arc_gnu/bin/../lib/gcc/arc-elf32/7.1.1/em4_dmips\libgcc.a(dp-bit.o)
                0x100b03ac                __gtdf2
 .text.__gedf2  0x100b03f0        0x4 d:/arc_gnu/bin/../lib/gcc/arc-elf32/7.1.1/em4_dmips\libgcc.a(dp-bit.o)
                0x100b03f0                __gedf2
 .text.__ltdf2  0x100b03f4        0x4 d:/arc_gnu/bin/../lib/gcc/arc-elf32/7.1.1/em4_dmips\libgcc.a(dp-bit.o)
                0x100b03f4                __ltdf2
 .text.__ledf2  0x100b03f8        0x4 d:/arc_gnu/bin/../lib/gcc/arc-elf32/7.1.1/em4_dmips\libgcc.a(dp-bit.o)
                0x100b03f8                __ledf2
 .text.__unorddf2
                0x100b03fc       0x3c d:/arc_gnu/bin/../lib/gcc/arc-elf32/7.1.1/em4_dmips\libgcc.a(dp-bit.o)
                0x100b03fc                __unorddf2
 .text.__floatsidf
                0x100b0438       0x7c d:/arc_gnu/bin/../lib/gcc/arc-elf32/7.1.1/em4_dmips\libgcc.a(dp-bit.o)
                0x100b0438                __floatsidf
 .text.__floatunsidf
                0x100b04b4       0x70 d:/arc_gnu/bin/../lib/gcc/arc-elf32/7.1.1/em4_dmips\libgcc.a(dp-bit.o)
                0x100b04b4                __floatunsidf
 .text.__fixdfsi
                0x100b0524       0x94 d:/arc_gnu/bin/../lib/gcc/arc-elf32/7.1.1/em4_dmips\libgcc.a(dp-bit.o)
                0x100b0524                __fixdfsi
 .text.__fixunsdfsi
                0x100b05b8       0x68 d:/arc_gnu/bin/../lib/gcc/arc-elf32/7.1.1/em4_dmips\libgcc.a(dp-bit.o)
                0x100b05b8                __fixunsdfsi
 .text.__negdf2
                0x100b0620       0x28 d:/arc_gnu/bin/../lib/gcc/arc-elf32/7.1.1/em4_dmips\libgcc.a(dp-bit.o)
                0x100b0620                __negdf2
 .text.__make_dp
                0x100b0648       0x20 d:/arc_gnu/bin/../lib/gcc/arc-elf32/7.1.1/em4_dmips\libgcc.a(dp-bit.o)
                0x100b0648                __make_dp
 .text.__truncdfsf2
                0x100b0668       0x38 d:/arc_gnu/bin/../lib/gcc/arc-elf32/7.1.1/em4_dmips\libgcc.a(dp-bit.o)
                0x100b0668                __truncdfsf2
 .text          0x100b06a0       0x94 obj_emsk_22/gnu_arcem7d/library/clib/embarc_sbrk.o
                0x100b06a0                _sbrk
 .text          0x100b0734      0xc70 obj_emsk_22/gnu_arcem7d/library/clib/embarc_syscalls.o
                0x100b096c                _open
                0x100b0a68                _close
                0x100b0afc                _read
                0x100b0b9c                _write
                0x100b0c3c                _lseek
                0x100b0d10                _access
                0x100b0d4c                _isatty
                0x100b0da4                _unlink
                0x100b0dd4                rename
                0x100b0e0c                _rmdir
                0x100b0e30                _stat
                0x100b0ec4                _lstat
                0x100b0ef0                _fstat
                0x100b0f38                _getcwd
                0x100b0f74                getcwd
                0x100b0fa0                _getpid
                0x100b0fb0                _exit
                0x100b0fc8                _kill
                0x100b0fe4                _getenv
                0x100b107c                _putenv
                0x100b11b0                clock
                0x100b120c                _time
                0x100b1288                _times
                0x100b12e0                _gettimeofday
                0x100b137c                __argc
                0x100b138c                __argv
 .text          0x100b13a4      0x108 obj_emsk_22/gnu_arcem7d/library/clib/embarc_target.o
                0x100b13a4                get_build_timedate
 .text          0x100b14ac      0x78c d:/arc_gnu/bin/../lib/gcc/arc-elf32/7.1.1/../../../../arc-elf32/lib/em4_dmips\libc.a(lib_a-mktime.o)
                0x100b1790                mktime
 .text          0x100b1c38       0xc8 d:/arc_gnu/bin/../lib/gcc/arc-elf32/7.1.1/../../../../arc-elf32/lib/em4_dmips\libc.a(lib_a-sscanf.o)
                0x100b1c38                sscanf
                0x100b1c98                _sscanf_r
 .text          0x100b1d00      0xdb8 d:/arc_gnu/bin/../lib/gcc/arc-elf32/7.1.1/../../../../arc-elf32/lib/em4_dmips\libc.a(lib_a-svfscanf.o)
                0x100b1d00                __ssvfscanf_r
 .text          0x100b2ab8       0x34 d:/arc_gnu/bin/../lib/gcc/arc-elf32/7.1.1/../../../../arc-elf32/lib/em4_dmips\libc.a(lib_a-div.o)
                0x100b2ab8                div
 .text          0x100b2aec        0xc d:/arc_gnu/bin/../lib/gcc/arc-elf32/7.1.1/../../../../arc-elf32/lib/em4_dmips\libc.a(lib_a-sf_nan.o)
                0x100b2aec                nanf
 .text          0x100b2af8     0x1118 d:/arc_gnu/bin/../lib/gcc/arc-elf32/7.1.1/../../../../arc-elf32/lib/em4_dmips\libc.a(lib_a-strtod.o)
                0x100b2af8                _strtod_l
                0x100b3a54                _strtod_r
                0x100b3a68                strtod_l
                0x100b3a74                strtod
                0x100b3a90                strtof_l
                0x100b3b48                strtof
 .text.unlikely
                0x100b3c10       0x54 d:/arc_gnu/bin/../lib/gcc/arc-elf32/7.1.1/../../../../arc-elf32/lib/em4_dmips\libc.a(lib_a-strtod.o)
 .text          0x100b3c64      0x6d0 d:/arc_gnu/bin/../lib/gcc/arc-elf32/7.1.1/../../../../arc-elf32/lib/em4_dmips\libc.a(lib_a-gdtoa-gethex.o)
                0x100b3d34                __gethex
 .text          0x100b4334      0x210 d:/arc_gnu/bin/../lib/gcc/arc-elf32/7.1.1/../../../../arc-elf32/lib/em4_dmips\libc.a(lib_a-gdtoa-hexnan.o)
                0x100b4334                __match
                0x100b4368                __hexnan
                0x100b4544                _e_text = .

.rodata         0x100b4544    0x33d8c
                0x100b4544                _f_rodata = .
                0x100b4544                . = ALIGN (0x4)
                0x100b4544                __CTOR_LIST__ = .
                0x100b4544        0x4 LONG 0x0 (((__CTOR_END__ - __CTOR_LIST__) / 0x4) - 0x2)
 *(SORT(.ctors*))
                0x100b4548        0x4 LONG 0x0
                0x100b454c                __CTOR_END__ = .
                0x100b454c                . = ALIGN (0x4)
                0x100b454c                __init_array_start = .
 *(SORT(.init_array*))
                0x100b454c                __init_array_end = .
                0x100b454c                . = ALIGN (0x4)
                0x100b454c                __DTOR_LIST__ = .
                0x100b454c        0x4 LONG 0x0 (((__DTOR_END__ - __DTOR_LIST__) / 0x4) - 0x2)
 *(SORT(.dtors*))
                0x100b4550        0x4 LONG 0x0
                0x100b4554                __DTOR_END__ = .
 *(.rodata .rodata.* .gnu.linkonce.r.*)
 .rodata        0x100b4554       0xe4 obj_emsk_22/gnu_arcem7d/application/./Source/main.o
 .rodata        0x100b4638      0x160 obj_emsk_22/gnu_arcem7d/board/board.o
 .rodata        0x100b4798       0x20 obj_emsk_22/gnu_arcem7d/board/emsk/common/emsk_init.o
 .rodata        0x100b47b8       0x38 obj_emsk_22/gnu_arcem7d/board/emsk/drivers/mux/mux.o
 .rodata        0x100b47f0       0x2c obj_emsk_22/gnu_arcem7d/board/emsk/drivers/pmwifi/pmwifi.o
 .rodata        0x100b481c      0x340 obj_emsk_22/gnu_arcem7d/middleware/common/console_io.o
 .rodata        0x100b4b5c       0x7c obj_emsk_22/gnu_arcem7d/middleware/common/xprintf/xprintf.o
 .rodata        0x100b4bd8       0xe0 obj_emsk_22/gnu_arcem7d/middleware/fatfs/src/ff.o
 .rodata        0x100b4cb8     0xeea8 obj_emsk_22/gnu_arcem7d/middleware/fatfs/src/ff_unicode.o
 .rodata        0x100c3b60      0x1e0 obj_emsk_22/gnu_arcem7d/middleware/lwip-contrib/ports/arc/lwip_pmwifi.o
 .rodata        0x100c3d40       0xf4 obj_emsk_22/gnu_arcem7d/middleware/lwip-contrib/ports/arc/netif/pmwifi_netif.o
 .rodata        0x100c3e34        0xc obj_emsk_22/gnu_arcem7d/middleware/lwip-contrib/ports/arc/sys_arch/freertos/sys_arch.o
 .rodata        0x100c3e40       0x20 obj_emsk_22/gnu_arcem7d/middleware/vending-machine/source/led_task.o
 .rodata        0x100c3e60       0x78 obj_emsk_22/gnu_arcem7d/middleware/vending-machine/source/temp_task.o
 .rodata        0x100c3ed8       0x4c obj_emsk_22/gnu_arcem7d/middleware/vending-machine/source/vm_task.o
 .rodata        0x100c3f24      0x1d4 obj_emsk_22/gnu_arcem7d/middleware/vending-machine/source/oled_task.o
 .rodata        0x100c40f8       0x48 obj_emsk_22/gnu_arcem7d/middleware/vending-machine/source/numpad_task.o
 .rodata        0x100c4140      0xb5c obj_emsk_22/gnu_arcem7d/middleware/vending-machine/source/communication_task.o
 .rodata        0x100c4c9c       0x20 obj_emsk_22/gnu_arcem7d/os/freertos/portable/synopsys/arc/arc_freertos_exceptions.o
 .rodata        0x100c4cbc       0x30 obj_emsk_22/gnu_arcem7d/os/freertos/tasks.o
 .rodata        0x100c4cec       0x94 obj_emsk_22/gnu_arcem7d/arc/arc_exception.o
 .rodata        0x100c4d80       0x30 obj_emsk_22/gnu_arcem7d/board/emsk/drivers/ip/designware/gpio/dw_gpio_obj.o
 .rodata        0x100c4db0       0x20 obj_emsk_22/gnu_arcem7d/board/emsk/drivers/ip/designware/uart/dw_uart_obj.o
 .rodata        0x100c4dd0       0x2c obj_emsk_22/gnu_arcem7d/device/ip/designware/gpio/dw_gpio.o
 .rodata        0x100c4dfc       0xa4 obj_emsk_22/gnu_arcem7d/device/ip/designware/uart/dw_uart.o
                0x100c4e0c                dw_uart_databits
                0x100c4e10                dw_uart_parity
                0x100c4e18                dw_uart_stopbits
 .rodata        0x100c4ea0       0x20 obj_emsk_22/gnu_arcem7d/device/peripheral/sensor/temperature/adt7420/adt7420.o
 .rodata        0x100c4ec0      0x26c obj_emsk_22/gnu_arcem7d/device/peripheral/wifi/rw009/rw009.o
 .rodata        0x100c512c       0x20 obj_emsk_22/gnu_arcem7d/board/emsk/common/emsk_gpio.o
 .rodata        0x100c514c       0x20 obj_emsk_22/gnu_arcem7d/board/emsk/common/emsk_timer.o
 .rodata        0x100c516c      0x538 obj_emsk_22/gnu_arcem7d/middleware/lwip/src/core/pbuf.o
 .rodata        0x100c56a4       0xc8 obj_emsk_22/gnu_arcem7d/middleware/lwip/src/core/dns.o
 .rodata        0x100c576c      0x21c obj_emsk_22/gnu_arcem7d/middleware/lwip/src/core/mem.o
 .rodata        0x100c5988       0xa0 obj_emsk_22/gnu_arcem7d/middleware/lwip/src/core/udp.o
 .rodata        0x100c5a28       0x48 obj_emsk_22/gnu_arcem7d/middleware/lwip/src/core/def.o
 .rodata        0x100c5a70      0x4f4 obj_emsk_22/gnu_arcem7d/middleware/lwip/src/core/tcp.o
                0x100c5b2c                tcp_pcb_lists
 .rodata        0x100c5f64       0x78 obj_emsk_22/gnu_arcem7d/middleware/lwip/src/core/netif.o
 .rodata        0x100c5fdc       0xd4 obj_emsk_22/gnu_arcem7d/middleware/lwip/src/core/timeouts.o
                0x100c5fdc                lwip_cyclic_timers
 .rodata        0x100c60b0      0x3ac obj_emsk_22/gnu_arcem7d/middleware/lwip/src/core/tcp_in.o
 .rodata        0x100c645c      0x2c8 obj_emsk_22/gnu_arcem7d/middleware/lwip/src/core/memp.o
                0x100c6464                memp_RAW_PCB
                0x100c647c                memp_UDP_PCB
                0x100c6494                memp_TCP_PCB
                0x100c64b4                memp_TCP_PCB_LISTEN
                0x100c64cc                memp_TCP_SEG
                0x100c64e8                memp_REASSDATA
                0x100c6504                memp_FRAG_PBUF
                0x100c651c                memp_NETBUF
                0x100c6534                memp_NETCONN
                0x100c6554                memp_TCPIP_MSG_API
                0x100c6574                memp_TCPIP_MSG_INPKT
                0x100c6590                memp_SYS_TIMEOUT
                0x100c65a8                memp_NETDB
                0x100c65c8                memp_PBUF
                0x100c65e4                memp_PBUF_POOL
                0x100c65f4                memp_pools
 .rodata        0x100c6724       0x70 obj_emsk_22/gnu_arcem7d/middleware/lwip/src/core/inet_chksum.o
 .rodata        0x100c6794       0xfc obj_emsk_22/gnu_arcem7d/middleware/lwip/src/core/ipv4/icmp.o
 .rodata        0x100c6890       0xa0 obj_emsk_22/gnu_arcem7d/middleware/lwip/src/core/ipv4/ip4.o
 .rodata        0x100c6930       0x90 obj_emsk_22/gnu_arcem7d/middleware/lwip/src/core/ipv4/ip4_addr.o
                0x100c6930                ip_addr_any
                0x100c6934                ip_addr_broadcast
 .rodata        0x100c69c0      0x26c obj_emsk_22/gnu_arcem7d/middleware/lwip/src/core/ipv4/etharp.o
 .rodata        0x100c6c2c      0x618 obj_emsk_22/gnu_arcem7d/middleware/lwip/src/core/ipv4/dhcp.o
 .rodata        0x100c7244      0x224 obj_emsk_22/gnu_arcem7d/middleware/lwip/src/core/ipv4/ip4_frag.o
 .rodata        0x100c7468       0xa4 obj_emsk_22/gnu_arcem7d/middleware/lwip/src/netif/ethernet.o
                0x100c7468                ethbroadcast
                0x100c746e                ethzero
 .rodata        0x100c750c       0xe8 obj_emsk_22/gnu_arcem7d/middleware/lwip/src/api/tcpip.o
 .rodata        0x100c75f4      0x130 obj_emsk_22/gnu_arcem7d/middleware/mbedtls/library/ctr_drbg.o
 .rodata        0x100c7724      0x870 obj_emsk_22/gnu_arcem7d/middleware/mbedtls/library/x509_crt.o
                0x100c7744                mbedtls_x509_crt_profile_default
                0x100c7754                mbedtls_x509_crt_profile_next
                0x100c7764                mbedtls_x509_crt_profile_suiteb
 .rodata        0x100c7f94      0x100 obj_emsk_22/gnu_arcem7d/middleware/mbedtls/library/x509.o
 .rodata        0x100c8094     0x2d50 obj_emsk_22/gnu_arcem7d/middleware/mbedtls/library/ssl_ciphersuites.o
 .rodata        0x100cade4     0x3d1c obj_emsk_22/gnu_arcem7d/middleware/mbedtls/library/certs.o
                0x100cade4                mbedtls_test_ca_crt_ec
                0x100cb158                mbedtls_test_ca_key_ec
                0x100cb2c4                mbedtls_test_ca_pwd_ec
                0x100cb2d4                mbedtls_test_srv_crt_ec
                0x100cb604                mbedtls_test_srv_key_ec
                0x100cb6f0                mbedtls_test_cli_crt_ec
                0x100cba30                mbedtls_test_cli_key_ec
                0x100cbb1c                mbedtls_test_ca_crt_ec_len
                0x100cbb20                mbedtls_test_ca_key_ec_len
                0x100cbb24                mbedtls_test_ca_pwd_ec_len
                0x100cbb28                mbedtls_test_srv_crt_ec_len
                0x100cbb2c                mbedtls_test_srv_key_ec_len
                0x100cbb30                mbedtls_test_cli_crt_ec_len
                0x100cbb34                mbedtls_test_cli_key_ec_len
                0x100cbb38                mbedtls_test_ca_crt_rsa
                0x100cc054                mbedtls_test_ca_key_rsa
                0x100cc74c                mbedtls_test_ca_pwd_rsa
                0x100cc75c                mbedtls_test_srv_crt_rsa
                0x100ccc0c                mbedtls_test_srv_key_rsa
                0x100cd2b8                mbedtls_test_cli_crt_rsa
                0x100cdb7c                mbedtls_test_cli_key_rsa
                0x100ce228                mbedtls_test_ca_crt_rsa_len
                0x100ce22c                mbedtls_test_ca_key_rsa_len
                0x100ce230                mbedtls_test_ca_pwd_rsa_len
                0x100ce234                mbedtls_test_srv_crt_rsa_len
                0x100ce238                mbedtls_test_srv_key_rsa_len
                0x100ce23c                mbedtls_test_cli_crt_rsa_len
                0x100ce240                mbedtls_test_cli_key_rsa_len
                0x100ce244                mbedtls_test_cas_pem
                0x100cead4                mbedtls_test_cas_pem_len
                0x100cead8                mbedtls_test_cas_len
                0x100ceae4                mbedtls_test_ca_crt_len
                0x100ceae8                mbedtls_test_ca_key_len
                0x100ceaec                mbedtls_test_ca_pwd_len
                0x100ceaf0                mbedtls_test_srv_crt_len
                0x100ceaf4                mbedtls_test_srv_key_len
                0x100ceaf8                mbedtls_test_cli_crt_len
                0x100ceafc                mbedtls_test_cli_key_len
 .rodata        0x100ceb00       0x1c obj_emsk_22/gnu_arcem7d/middleware/mbedtls/library/pk.o
 .rodata        0x100ceb1c       0x10 obj_emsk_22/gnu_arcem7d/middleware/mbedtls/library/asn1parse.o
 .rodata        0x100ceb2c      0x560 obj_emsk_22/gnu_arcem7d/middleware/mbedtls/library/rsa.o
 .rodata        0x100cf08c     0x115c obj_emsk_22/gnu_arcem7d/middleware/mbedtls/library/oid.o
 .rodata        0x100d01e8      0x158 obj_emsk_22/gnu_arcem7d/middleware/mbedtls/library/sha1.o
 .rodata        0x100d0340      0x16c obj_emsk_22/gnu_arcem7d/middleware/mbedtls/library/pkparse.o
 .rodata        0x100d04ac     0x1e70 obj_emsk_22/gnu_arcem7d/middleware/mbedtls/library/ssl_tls.o
 .rodata        0x100d231c      0x174 obj_emsk_22/gnu_arcem7d/middleware/mbedtls/library/dhm.o
 .rodata        0x100d2490       0x14 obj_emsk_22/gnu_arcem7d/middleware/mbedtls/library/cipher.o
 .rodata        0x100d24a4      0x620 obj_emsk_22/gnu_arcem7d/middleware/mbedtls/library/sha512.o
 .rodata        0x100d2ac4       0x2c obj_emsk_22/gnu_arcem7d/middleware/mbedtls/library/entropy.o
 .rodata        0x100d2af0      0x434 obj_emsk_22/gnu_arcem7d/middleware/mbedtls/library/aes.o
 .rodata        0x100d2f24       0xdc obj_emsk_22/gnu_arcem7d/middleware/mbedtls/library/debug.o
 .rodata        0x100d3000     0x26c8 obj_emsk_22/gnu_arcem7d/middleware/mbedtls/library/error.o
 .rodata        0x100d56c8       0x9c obj_emsk_22/gnu_arcem7d/middleware/mbedtls/library/pem.o
 .rodata        0x100d5764       0x20 obj_emsk_22/gnu_arcem7d/middleware/mbedtls/embarc/timing_alt.o
 .rodata        0x100d5784       0x40 obj_emsk_22/gnu_arcem7d/middleware/u8glib/csrc/u8g_com_embarc_ssd1306_spi.o
 .rodata        0x100d57c4       0xa8 obj_emsk_22/gnu_arcem7d/middleware/u8glib/csrc/u8g_dev_embarc_ssd1306_128x64.o
 .rodata        0x100d586c       0x10 obj_emsk_22/gnu_arcem7d/middleware/u8glib/csrc/u8g_pb.o
 .rodata        0x100d587c      0x11c obj_emsk_22/gnu_arcem7d/middleware/u8glib/csrc/u8g_pb16v1.o
 .rodata        0x100d5998       0x10 obj_emsk_22/gnu_arcem7d/middleware/u8glib/csrc/u8g_font.o
 .rodata        0x100d59a8      0x11c obj_emsk_22/gnu_arcem7d/middleware/u8glib/csrc/u8g_pb8v1.o
 .rodata        0x100d5ac4       0x20 obj_emsk_22/gnu_arcem7d/middleware/u8glib/csrc/u8g_delay.o
 .rodata        0x100d5ae4     0x47c4 obj_emsk_22/gnu_arcem7d/middleware/u8glib/fntsrc/u8g_font_gdr30.o
                0x100d5ae4                u8g_font_gdr30
 .rodata        0x100da2a8     0x23a0 obj_emsk_22/gnu_arcem7d/middleware/u8glib/fntsrc/u8g_font_gdr20.o
                0x100da2a8                u8g_font_gdr20
 .rodata        0x100dc648      0x74c obj_emsk_22/gnu_arcem7d/middleware/u8glib/fntsrc/u8g_font_6x10.o
                0x100dc648                u8g_font_6x10
 .rodata        0x100dcd94       0x20 obj_emsk_22/gnu_arcem7d/os/freertos/portable/synopsys/arc/port.o
 .rodata        0x100dcdb4        0x2 obj_emsk_22/gnu_arcem7d/os/freertos/portable/heap_sel.o
 *fill*         0x100dcdb6        0x2 
 .rodata        0x100dcdb8       0x20 obj_emsk_22/gnu_arcem7d/library/clib/fatfs_dirent.o
 .rodata        0x100dcdd8       0x20 obj_emsk_22/gnu_arcem7d/board/emsk/drivers/ip/designware/iic/dw_iic_obj.o
 .rodata        0x100dcdf8       0x20 obj_emsk_22/gnu_arcem7d/board/emsk/drivers/ip/designware/spi/dw_spi_obj.o
 .rodata        0x100dce18       0x20 obj_emsk_22/gnu_arcem7d/device/ip/designware/spi/dw_spi.o
 .rodata        0x100dce38       0x20 obj_emsk_22/gnu_arcem7d/board/emsk/drivers/sdcard/emsk_sdcard_spi.o
 .rodata        0x100dce58       0x3c obj_emsk_22/gnu_arcem7d/middleware/fatfs/src/diskdrv/ff_sdcard_spi.o
 .rodata        0x100dce94      0x4a4 obj_emsk_22/gnu_arcem7d/middleware/lwip/src/core/tcp_out.o
 .rodata        0x100dd338       0xd0 obj_emsk_22/gnu_arcem7d/middleware/lwip/src/core/raw.o
 .rodata        0x100dd408      0x288 obj_emsk_22/gnu_arcem7d/middleware/lwip/src/api/sockets.o
 .rodata        0x100dd690      0x190 obj_emsk_22/gnu_arcem7d/middleware/lwip/src/api/err.o
 .rodata        0x100dd820      0x19c obj_emsk_22/gnu_arcem7d/middleware/lwip/src/api/netbuf.o
 .rodata        0x100dd9bc      0x330 obj_emsk_22/gnu_arcem7d/middleware/lwip/src/api/api_lib.o
 .rodata        0x100ddcec       0xa8 obj_emsk_22/gnu_arcem7d/middleware/lwip/src/api/netdb.o
 .rodata        0x100ddd94      0x750 obj_emsk_22/gnu_arcem7d/middleware/mbedtls/library/bignum.o
 .rodata        0x100de4e4     0x134c obj_emsk_22/gnu_arcem7d/middleware/mbedtls/library/ssl_cli.o
 .rodata        0x100df830      0x128 obj_emsk_22/gnu_arcem7d/middleware/mbedtls/library/pk_wrap.o
                0x100df844                mbedtls_rsa_info
                0x100df880                mbedtls_eckey_info
                0x100df8b8                mbedtls_eckeydh_info
                0x100df8f0                mbedtls_ecdsa_info
                0x100df928                mbedtls_rsa_alt_info
 .rodata        0x100df958      0x1a8 obj_emsk_22/gnu_arcem7d/middleware/mbedtls/library/base64.o
 .rodata        0x100dfb00       0x7c obj_emsk_22/gnu_arcem7d/middleware/mbedtls/library/md.o
 .rodata        0x100dfb7c      0x10c obj_emsk_22/gnu_arcem7d/middleware/mbedtls/library/ccm.o
 .rodata        0x100dfc88      0x8f0 obj_emsk_22/gnu_arcem7d/middleware/mbedtls/library/ecp_curves.o
 .rodata        0x100e0578       0x6c obj_emsk_22/gnu_arcem7d/middleware/mbedtls/library/arc4.o
 .rodata        0x100e05e4      0x318 obj_emsk_22/gnu_arcem7d/middleware/mbedtls/library/ecp.o
 .rodata        0x100e08fc      0xbf8 obj_emsk_22/gnu_arcem7d/middleware/mbedtls/library/cipher_wrap.o
                0x100e1374                mbedtls_cipher_definitions
 .rodata        0x100e14f4      0xa80 obj_emsk_22/gnu_arcem7d/middleware/mbedtls/library/des.o
 .rodata        0x100e1f74      0x328 obj_emsk_22/gnu_arcem7d/middleware/mbedtls/library/md5.o
 .rodata        0x100e229c      0x310 obj_emsk_22/gnu_arcem7d/middleware/mbedtls/library/pkcs5.o
 .rodata        0x100e25ac      0xc5c obj_emsk_22/gnu_arcem7d/middleware/mbedtls/library/gcm.o
 .rodata        0x100e3208      0x2f8 obj_emsk_22/gnu_arcem7d/middleware/mbedtls/library/sha256.o
 .rodata        0x100e3500     0x1500 obj_emsk_22/gnu_arcem7d/middleware/mbedtls/library/ssl_srv.o
 .rodata        0x100e4a00      0x188 obj_emsk_22/gnu_arcem7d/middleware/mbedtls/library/md_wrap.o
                0x100e4a04                mbedtls_md5_info
                0x100e4a40                mbedtls_ripemd160_info
                0x100e4a78                mbedtls_sha1_info
                0x100e4ab0                mbedtls_sha224_info
                0x100e4ae8                mbedtls_sha256_info
                0x100e4b20                mbedtls_sha384_info
                0x100e4b58                mbedtls_sha512_info
 .rodata        0x100e4b88      0x150 obj_emsk_22/gnu_arcem7d/middleware/mbedtls/library/hmac_drbg.o
 .rodata        0x100e4cd8       0x30 obj_emsk_22/gnu_arcem7d/middleware/u8glib/csrc/u8g_com_embarc_ssd1306_i2c.o
 .rodata        0x100e4d08      0x4cc obj_emsk_22/gnu_arcem7d/middleware/lwip/src/api/api_msg.o
 .rodata        0x100e51d4      0x210 obj_emsk_22/gnu_arcem7d/middleware/mbedtls/library/ripemd160.o
 .rodata        0x100e53e4      0x980 obj_emsk_22/gnu_arcem7d/middleware/mbedtls/library/camellia.o
 .rodata        0x100e5d64     0x1048 obj_emsk_22/gnu_arcem7d/middleware/mbedtls/library/blowfish.o
 .rodata        0x100e6dac        0x4 d:/arc_gnu/bin/../lib/gcc/arc-elf32/7.1.1/../../../../arc-elf32/lib/em4_dmips\libc.a(lib_a-impure.o)
                0x100e6dac                _global_impure_ptr
 .rodata        0x100e6db0       0x60 d:/arc_gnu/bin/../lib/gcc/arc-elf32/7.1.1/../../../../arc-elf32/lib/em4_dmips\libc.a(lib_a-month_lengths.o)
                0x100e6db0                __month_lengths
 .rodata.str1.4
                0x100e6e10        0x2 d:/arc_gnu/bin/../lib/gcc/arc-elf32/7.1.1/../../../../arc-elf32/lib/em4_dmips\libc.a(lib_a-puts.o)
                                  0x4 (size before relaxing)
 *fill*         0x100e6e12        0x2 
 .rodata.str1.4
                0x100e6e14       0x42 d:/arc_gnu/bin/../lib/gcc/arc-elf32/7.1.1/../../../../arc-elf32/lib/em4_dmips\libc.a(lib_a-svfprintf.o)
                                 0x44 (size before relaxing)
 *fill*         0x100e6e56        0x2 
 .rodata        0x100e6e58      0x184 d:/arc_gnu/bin/../lib/gcc/arc-elf32/7.1.1/../../../../arc-elf32/lib/em4_dmips\libc.a(lib_a-svfprintf.o)
 .rodata.str1.4
                0x100e6fdc       0x53 d:/arc_gnu/bin/../lib/gcc/arc-elf32/7.1.1/../../../../arc-elf32/lib/em4_dmips\libc.a(lib_a-tzset_r.o)
                                 0x54 (size before relaxing)
 .rodata.str1.4
                0x100e702f        0x4 d:/arc_gnu/bin/../lib/gcc/arc-elf32/7.1.1/../../../../arc-elf32/lib/em4_dmips\libc.a(lib_a-tzvars.o)
 .rodata.str1.4
                0x100e702f       0x44 d:/arc_gnu/bin/../lib/gcc/arc-elf32/7.1.1/../../../../arc-elf32/lib/em4_dmips\libc.a(lib_a-vfprintf.o)
 *fill*         0x100e702f        0x1 
 .rodata        0x100e7030      0x184 d:/arc_gnu/bin/../lib/gcc/arc-elf32/7.1.1/../../../../arc-elf32/lib/em4_dmips\libc.a(lib_a-vfprintf.o)
 .rodata.str1.4
                0x100e71b4       0x10 d:/arc_gnu/bin/../lib/gcc/arc-elf32/7.1.1/../../../../arc-elf32/lib/em4_dmips\libc.a(lib_a-dtoa.o)
                                 0x14 (size before relaxing)
 .rodata        0x100e71c4       0x10 d:/arc_gnu/bin/../lib/gcc/arc-elf32/7.1.1/../../../../arc-elf32/lib/em4_dmips\libc.a(lib_a-dtoa.o)
 .rodata.str1.4
                0x100e71d4        0xe d:/arc_gnu/bin/../lib/gcc/arc-elf32/7.1.1/../../../../arc-elf32/lib/em4_dmips\libc.a(lib_a-locale.o)
                                 0x14 (size before relaxing)
 *fill*         0x100e71e2        0x2 
 .rodata        0x100e71e4      0x124 d:/arc_gnu/bin/../lib/gcc/arc-elf32/7.1.1/../../../../arc-elf32/lib/em4_dmips\libc.a(lib_a-mprec.o)
                0x100e71f0                __mprec_tinytens
                0x100e7218                __mprec_bigtens
                0x100e7240                __mprec_tens
 .rodata.str1.4
                0x100e7308       0x30 d:/arc_gnu/bin/../lib/gcc/arc-elf32/7.1.1/../../../../arc-elf32/lib/em4_dmips\libc.a(lib_a-svfiprintf.o)
 .rodata        0x100e7308      0x184 d:/arc_gnu/bin/../lib/gcc/arc-elf32/7.1.1/../../../../arc-elf32/lib/em4_dmips\libc.a(lib_a-svfiprintf.o)
 .rodata        0x100e748c      0x340 d:/arc_gnu/bin/../lib/gcc/arc-elf32/7.1.1/../../../../arc-elf32/lib/em4_dmips\libc.a(lib_a-svfiscanf.o)
 .rodata.str1.4
                0x100e77cc       0x30 d:/arc_gnu/bin/../lib/gcc/arc-elf32/7.1.1/../../../../arc-elf32/lib/em4_dmips\libc.a(lib_a-vfiprintf.o)
 .rodata        0x100e77cc      0x184 d:/arc_gnu/bin/../lib/gcc/arc-elf32/7.1.1/../../../../arc-elf32/lib/em4_dmips\libc.a(lib_a-vfiprintf.o)
 .rodata        0x100e7950      0x104 d:/arc_gnu/bin/../lib/gcc/arc-elf32/7.1.1/../../../../arc-elf32/lib/em4_dmips\libc.a(lib_a-ctype_.o)
                0x100e7950                _ctype_
 .rodata.str1.4
                0x100e7a54        0x4 d:/arc_gnu/bin/../lib/gcc/arc-elf32/7.1.1/../../../../arc-elf32/lib/em4_dmips\libc.a(lib_a-mbrtowc.o)
 .rodata.__thenan_sf
                0x100e7a54       0x10 d:/arc_gnu/bin/../lib/gcc/arc-elf32/7.1.1/em4_dmips\libgcc.a(fp-bit.o)
                0x100e7a54                __thenan_sf
 .rodata.__thenan_df
                0x100e7a64       0x14 d:/arc_gnu/bin/../lib/gcc/arc-elf32/7.1.1/em4_dmips\libgcc.a(dp-bit.o)
                0x100e7a64                __thenan_df
 .rodata        0x100e7a78       0x40 obj_emsk_22/gnu_arcem7d/library/clib/embarc_syscalls.o
 .rodata        0x100e7ab8       0x60 obj_emsk_22/gnu_arcem7d/library/clib/embarc_target.o
 .rodata        0x100e7b18       0x60 d:/arc_gnu/bin/../lib/gcc/arc-elf32/7.1.1/../../../../arc-elf32/lib/em4_dmips\libc.a(lib_a-mktime.o)
 .rodata.str1.4
                0x100e7b78        0x5 d:/arc_gnu/bin/../lib/gcc/arc-elf32/7.1.1/../../../../arc-elf32/lib/em4_dmips\libc.a(lib_a-svfscanf.o)
                                  0x8 (size before relaxing)
 *fill*         0x100e7b7d        0x3 
 .rodata        0x100e7b80      0x48c d:/arc_gnu/bin/../lib/gcc/arc-elf32/7.1.1/../../../../arc-elf32/lib/em4_dmips\libc.a(lib_a-svfscanf.o)
 .rodata.str1.4
                0x100e800c       0x10 d:/arc_gnu/bin/../lib/gcc/arc-elf32/7.1.1/../../../../arc-elf32/lib/em4_dmips\libc.a(lib_a-strtod.o)
 .rodata        0x100e801c      0x1b4 d:/arc_gnu/bin/../lib/gcc/arc-elf32/7.1.1/../../../../arc-elf32/lib/em4_dmips\libc.a(lib_a-strtod.o)
 .rodata        0x100e81d0      0x100 d:/arc_gnu/bin/../lib/gcc/arc-elf32/7.1.1/../../../../arc-elf32/lib/em4_dmips\libc.a(lib_a-gdtoa-gethex.o)
                0x100e81d0                __hexdig
                0x100e82d0                _e_rodata = .

.data           0x100e82d0      0xd68
                0x100e82d0                _f_data = .
 *(.data .data.* .gnu.linkonce.d.*)
 .data          0x100e82d0        0x0 obj_emsk_22/gnu_arcem7d/application/./Source/main.o
 .data          0x100e82d0        0x8 obj_emsk_22/gnu_arcem7d/board/board.o
                0x100e82d0                s_main_args
 .data          0x100e82d8        0x0 obj_emsk_22/gnu_arcem7d/arc/startup/arc_cxx_support.o
 .data          0x100e82d8        0x0 obj_emsk_22/gnu_arcem7d/arc/startup/arc_startup.o
 .data          0x100e82d8        0x0 obj_emsk_22/gnu_arcem7d/board/emsk/common/emsk_init.o
 .data          0x100e82d8        0x0 obj_emsk_22/gnu_arcem7d/board/emsk/drivers/mux/mux.o
 .data          0x100e82d8        0x0 obj_emsk_22/gnu_arcem7d/board/emsk/drivers/pmwifi/pmwifi.o
 .data          0x100e82d8        0x4 obj_emsk_22/gnu_arcem7d/middleware/common/console_io.o
 .data          0x100e82dc        0x0 obj_emsk_22/gnu_arcem7d/middleware/common/xprintf/xprintf.o
 .data          0x100e82dc        0x0 obj_emsk_22/gnu_arcem7d/middleware/fatfs/src/ff.o
 .data          0x100e82dc        0x0 obj_emsk_22/gnu_arcem7d/middleware/fatfs/src/ff_unicode.o
 .data          0x100e82dc        0x0 obj_emsk_22/gnu_arcem7d/middleware/lwip-contrib/ports/arc/lwip_pmwifi.o
 .data          0x100e82dc        0x0 obj_emsk_22/gnu_arcem7d/middleware/lwip-contrib/ports/arc/netif/pmwifi_netif.o
 .data          0x100e82dc        0x4 obj_emsk_22/gnu_arcem7d/middleware/lwip-contrib/ports/arc/sys_arch/freertos/sys_arch.o
 .data          0x100e82e0        0x0 obj_emsk_22/gnu_arcem7d/middleware/vending-machine/source/led_task.o
 .data          0x100e82e0       0x10 obj_emsk_22/gnu_arcem7d/middleware/vending-machine/source/temp_task.o
 .data          0x100e82f0        0x0 obj_emsk_22/gnu_arcem7d/middleware/vending-machine/source/vm_task.o
 .data          0x100e82f0       0x38 obj_emsk_22/gnu_arcem7d/middleware/vending-machine/source/oled_task.o
                0x100e82f0                name
                0x100e830c                temp
                0x100e8314                user
                0x100e8318                number
 .data          0x100e8328        0x0 obj_emsk_22/gnu_arcem7d/middleware/vending-machine/source/numpad_task.o
 .data          0x100e8328       0x10 obj_emsk_22/gnu_arcem7d/middleware/vending-machine/source/communication_task.o
                0x100e8328                first
 .data          0x100e8338        0x0 obj_emsk_22/gnu_arcem7d/os/freertos/portable/synopsys/arc/arc_freertos_exceptions.o
 .data          0x100e8338        0x0 obj_emsk_22/gnu_arcem7d/os/freertos/tasks.o
 .data          0x100e8338        0x0 obj_emsk_22/gnu_arcem7d/os/freertos/list.o
 .data          0x100e8338        0x0 obj_emsk_22/gnu_arcem7d/os/freertos/queue.o
 .data          0x100e8338        0x0 obj_emsk_22/gnu_arcem7d/arc/arc_timer.o
 .data          0x100e8338        0x0 obj_emsk_22/gnu_arcem7d/arc/arc_cache.o
 .data          0x100e8338       0x90 obj_emsk_22/gnu_arcem7d/arc/arc_exception.o
                0x100e8338                exc_int_handler_table
 .data          0x100e83c8        0x0 obj_emsk_22/gnu_arcem7d/arc/arc_exc_asm.o
 .data          0x100e83c8        0x0 obj_emsk_22/gnu_arcem7d/library/clib/embarc_misc.o
 .data          0x100e83c8        0x8 obj_emsk_22/gnu_arcem7d/board/emsk/drivers/ip/designware/gpio/dw_gpio_obj.o
 .data          0x100e83d0       0x54 obj_emsk_22/gnu_arcem7d/board/emsk/drivers/ip/designware/uart/dw_uart_obj.o
                0x100e83d0                dw_uart_0_ctrl
                0x100e83ec                dw_uart_1_ctrl
                0x100e8408                dw_uart_2_ctrl
 .data          0x100e8424        0x0 obj_emsk_22/gnu_arcem7d/device/ip/designware/gpio/dw_gpio.o
 .data          0x100e8424        0x0 obj_emsk_22/gnu_arcem7d/device/ip/designware/uart/dw_uart.o
 .data          0x100e8424        0x0 obj_emsk_22/gnu_arcem7d/device/peripheral/sensor/temperature/adt7420/adt7420.o
 .data          0x100e8424        0x0 obj_emsk_22/gnu_arcem7d/device/peripheral/wifi/rw009/rw009.o
 .data          0x100e8424        0x0 obj_emsk_22/gnu_arcem7d/board/emsk/common/emsk_gpio.o
 .data          0x100e8424        0x4 obj_emsk_22/gnu_arcem7d/board/emsk/common/emsk_timer.o
 .data          0x100e8428        0x0 obj_emsk_22/gnu_arcem7d/board/emsk/drivers/sdcard/emsk_sdcard.o
 .data          0x100e8428        0x0 obj_emsk_22/gnu_arcem7d/middleware/fatfs/src/diskio.o
 .data          0x100e8428        0x0 obj_emsk_22/gnu_arcem7d/middleware/lwip/src/core/pbuf.o
 .data          0x100e8428        0x0 obj_emsk_22/gnu_arcem7d/middleware/lwip/src/core/dns.o
 .data          0x100e8428        0x0 obj_emsk_22/gnu_arcem7d/middleware/lwip/src/core/mem.o
 .data          0x100e8428        0x2 obj_emsk_22/gnu_arcem7d/middleware/lwip/src/core/udp.o
 .data          0x100e842a        0x0 obj_emsk_22/gnu_arcem7d/middleware/lwip/src/core/def.o
 *fill*         0x100e842a        0x2 
 .data          0x100e842c        0x8 obj_emsk_22/gnu_arcem7d/middleware/lwip/src/core/tcp.o
 .data          0x100e8434        0x0 obj_emsk_22/gnu_arcem7d/middleware/lwip/src/core/netif.o
 .data          0x100e8434        0x0 obj_emsk_22/gnu_arcem7d/middleware/lwip/src/core/timeouts.o
 .data          0x100e8434        0x0 obj_emsk_22/gnu_arcem7d/middleware/lwip/src/core/tcp_in.o
 .data          0x100e8434        0x0 obj_emsk_22/gnu_arcem7d/middleware/lwip/src/core/memp.o
 .data          0x100e8434        0x0 obj_emsk_22/gnu_arcem7d/middleware/lwip/src/core/inet_chksum.o
 .data          0x100e8434        0x0 obj_emsk_22/gnu_arcem7d/middleware/lwip/src/core/ipv4/icmp.o
 .data          0x100e8434        0x0 obj_emsk_22/gnu_arcem7d/middleware/lwip/src/core/ipv4/ip4.o
 .data          0x100e8434        0x0 obj_emsk_22/gnu_arcem7d/middleware/lwip/src/core/ipv4/ip4_addr.o
 .data          0x100e8434        0x0 obj_emsk_22/gnu_arcem7d/middleware/lwip/src/core/ipv4/etharp.o
 .data          0x100e8434        0x4 obj_emsk_22/gnu_arcem7d/middleware/lwip/src/core/ipv4/dhcp.o
 .data          0x100e8438        0x0 obj_emsk_22/gnu_arcem7d/middleware/lwip/src/core/ipv4/ip4_frag.o
 .data          0x100e8438        0x0 obj_emsk_22/gnu_arcem7d/middleware/lwip/src/netif/ethernet.o
 .data          0x100e8438        0x0 obj_emsk_22/gnu_arcem7d/middleware/lwip/src/api/tcpip.o
 .data          0x100e8438        0x0 obj_emsk_22/gnu_arcem7d/middleware/mbedtls/library/ctr_drbg.o
 .data          0x100e8438        0x0 obj_emsk_22/gnu_arcem7d/middleware/mbedtls/library/x509_crt.o
 .data          0x100e8438        0x0 obj_emsk_22/gnu_arcem7d/middleware/mbedtls/library/x509.o
 .data          0x100e8438        0x0 obj_emsk_22/gnu_arcem7d/middleware/mbedtls/library/ssl_ciphersuites.o
 .data          0x100e8438       0x28 obj_emsk_22/gnu_arcem7d/middleware/mbedtls/library/certs.o
                0x100e8438                mbedtls_test_cas
                0x100e8444                mbedtls_test_ca_crt
                0x100e8448                mbedtls_test_ca_key
                0x100e844c                mbedtls_test_ca_pwd
                0x100e8450                mbedtls_test_srv_crt
                0x100e8454                mbedtls_test_srv_key
                0x100e8458                mbedtls_test_cli_crt
                0x100e845c                mbedtls_test_cli_key
 .data          0x100e8460       0x10 obj_emsk_22/gnu_arcem7d/middleware/mbedtls/library/threading.o
                0x100e8460                mbedtls_mutex_init
                0x100e8464                mbedtls_mutex_free
                0x100e8468                mbedtls_mutex_lock
                0x100e846c                mbedtls_mutex_unlock
 .data          0x100e8470        0x0 obj_emsk_22/gnu_arcem7d/middleware/mbedtls/library/pk.o
 .data          0x100e8470        0x0 obj_emsk_22/gnu_arcem7d/middleware/mbedtls/library/asn1parse.o
 .data          0x100e8470        0x0 obj_emsk_22/gnu_arcem7d/middleware/mbedtls/library/rsa.o
 .data          0x100e8470        0x0 obj_emsk_22/gnu_arcem7d/middleware/mbedtls/library/oid.o
 .data          0x100e8470        0x0 obj_emsk_22/gnu_arcem7d/middleware/mbedtls/library/sha1.o
 .data          0x100e8470        0x0 obj_emsk_22/gnu_arcem7d/middleware/mbedtls/library/pkparse.o
 .data          0x100e8470       0x50 obj_emsk_22/gnu_arcem7d/middleware/mbedtls/library/ssl_tls.o
 .data          0x100e84c0        0x0 obj_emsk_22/gnu_arcem7d/middleware/mbedtls/library/dhm.o
 .data          0x100e84c0        0x0 obj_emsk_22/gnu_arcem7d/middleware/mbedtls/library/cipher.o
 .data          0x100e84c0        0x0 obj_emsk_22/gnu_arcem7d/middleware/mbedtls/library/sha512.o
 .data          0x100e84c0        0x0 obj_emsk_22/gnu_arcem7d/middleware/mbedtls/library/entropy.o
 .data          0x100e84c0        0x0 obj_emsk_22/gnu_arcem7d/middleware/mbedtls/library/aes.o
 .data          0x100e84c0        0x0 obj_emsk_22/gnu_arcem7d/middleware/mbedtls/library/debug.o
 .data          0x100e84c0        0x0 obj_emsk_22/gnu_arcem7d/middleware/mbedtls/library/havege.o
 .data          0x100e84c0        0x0 obj_emsk_22/gnu_arcem7d/middleware/mbedtls/library/entropy_poll.o
 .data          0x100e84c0        0x0 obj_emsk_22/gnu_arcem7d/middleware/mbedtls/library/error.o
 .data          0x100e84c0        0x0 obj_emsk_22/gnu_arcem7d/middleware/mbedtls/library/pem.o
 .data          0x100e84c0        0x0 obj_emsk_22/gnu_arcem7d/middleware/mbedtls/library/pkcs12.o
 .data          0x100e84c0        0x0 obj_emsk_22/gnu_arcem7d/middleware/mbedtls/embarc/threading_alt.o
 .data          0x100e84c0        0x0 obj_emsk_22/gnu_arcem7d/middleware/mbedtls/embarc/timing_alt.o
 .data          0x100e84c0        0x0 obj_emsk_22/gnu_arcem7d/middleware/mbedtls/embarc/net_alt.o
 .data          0x100e84c0        0x4 obj_emsk_22/gnu_arcem7d/middleware/u8glib/csrc/u8g_com_embarc_ssd1306_spi.o
 .data          0x100e84c4       0x3c obj_emsk_22/gnu_arcem7d/middleware/u8glib/csrc/u8g_dev_embarc_ssd1306_128x64.o
                0x100e84c4                u8g_dev_ssd1306_128x64_2x_pb
                0x100e84d0                u8g_dev_ssd1306_128x64_2x_i2c
                0x100e84dc                u8g_dev_ssd1306_128x64_2x_hw_spi
                0x100e84e8                u8g_dev_ssd1306_128x64_pb
                0x100e84f4                u8g_dev_ssd1306_128x64_hw_spi
 .data          0x100e8500        0x0 obj_emsk_22/gnu_arcem7d/middleware/u8glib/csrc/u8g_pb.o
 .data          0x100e8500        0x0 obj_emsk_22/gnu_arcem7d/middleware/u8glib/csrc/u8g_pb16v1.o
 .data          0x100e8500        0x0 obj_emsk_22/gnu_arcem7d/middleware/u8glib/csrc/u8g_font.o
 .data          0x100e8500        0x0 obj_emsk_22/gnu_arcem7d/middleware/u8glib/csrc/u8g_pb8v1.o
 .data          0x100e8500        0x0 obj_emsk_22/gnu_arcem7d/middleware/u8glib/csrc/u8g_rect.o
 .data          0x100e8500        0x0 obj_emsk_22/gnu_arcem7d/middleware/u8glib/csrc/u8g_ll_api.o
 .data          0x100e8500        0x0 obj_emsk_22/gnu_arcem7d/middleware/u8glib/csrc/u8g_delay.o
 .data          0x100e8500        0x0 obj_emsk_22/gnu_arcem7d/middleware/u8glib/csrc/u8g_clip.o
 .data          0x100e8500        0x0 obj_emsk_22/gnu_arcem7d/middleware/u8glib/csrc/u8g_line.o
 .data          0x100e8500        0x0 obj_emsk_22/gnu_arcem7d/middleware/u8glib/csrc/u8g_state.o
 .data          0x100e8500        0x0 obj_emsk_22/gnu_arcem7d/middleware/u8glib/csrc/u8g_circle.o
 .data          0x100e8500        0x0 obj_emsk_22/gnu_arcem7d/middleware/u8glib/fntsrc/u8g_font_gdr30.o
 .data          0x100e8500        0x0 obj_emsk_22/gnu_arcem7d/middleware/u8glib/fntsrc/u8g_font_gdr20.o
 .data          0x100e8500        0x0 obj_emsk_22/gnu_arcem7d/middleware/u8glib/fntsrc/u8g_font_6x10.o
 .data          0x100e8500        0x4 obj_emsk_22/gnu_arcem7d/os/freertos/portable/synopsys/arc/port.o
                0x100e8500                ulCriticalNesting
 .data          0x100e8504        0x4 obj_emsk_22/gnu_arcem7d/os/freertos/portable/heap_sel.o
 .data          0x100e8508        0x0 obj_emsk_22/gnu_arcem7d/os/freertos/portable/synopsys/arc/arc_support.o
 .data          0x100e8508        0x0 obj_emsk_22/gnu_arcem7d/library/clib/fatfs_dirent.o
 .data          0x100e8508        0x0 obj_emsk_22/gnu_arcem7d/board/emsk/drivers/ip/designware/iic/dw_iic_obj.o
 .data          0x100e8508        0x0 obj_emsk_22/gnu_arcem7d/board/emsk/drivers/ip/designware/spi/dw_spi_obj.o
 .data          0x100e8508        0x0 obj_emsk_22/gnu_arcem7d/device/ip/designware/iic/dw_iic.o
 .data          0x100e8508        0x0 obj_emsk_22/gnu_arcem7d/device/ip/designware/spi/dw_spi.o
 .data          0x100e8508       0x3c obj_emsk_22/gnu_arcem7d/board/emsk/drivers/sdcard/emsk_sdcard_spi.o
                0x100e8528                sdcard_spi_0_diskio
 .data          0x100e8544        0x0 obj_emsk_22/gnu_arcem7d/middleware/fatfs/src/diskdrv/ff_sdcard_spi.o
 .data          0x100e8544        0x0 obj_emsk_22/gnu_arcem7d/middleware/lwip/src/core/tcp_out.o
 .data          0x100e8544        0x0 obj_emsk_22/gnu_arcem7d/middleware/lwip/src/core/raw.o
 .data          0x100e8544        0x0 obj_emsk_22/gnu_arcem7d/middleware/lwip/src/core/ip.o
 .data          0x100e8544        0x0 obj_emsk_22/gnu_arcem7d/middleware/lwip/src/core/init.o
 .data          0x100e8544        0x0 obj_emsk_22/gnu_arcem7d/middleware/lwip/src/api/sockets.o
 .data          0x100e8544       0x44 obj_emsk_22/gnu_arcem7d/middleware/lwip/src/api/err.o
 .data          0x100e8588        0x0 obj_emsk_22/gnu_arcem7d/middleware/lwip/src/api/netbuf.o
 .data          0x100e8588        0x0 obj_emsk_22/gnu_arcem7d/middleware/lwip/src/api/api_lib.o
 .data          0x100e8588        0x0 obj_emsk_22/gnu_arcem7d/middleware/lwip/src/api/netdb.o
 .data          0x100e8588        0x0 obj_emsk_22/gnu_arcem7d/middleware/mbedtls/library/bignum.o
 .data          0x100e8588        0x0 obj_emsk_22/gnu_arcem7d/middleware/mbedtls/library/ssl_cli.o
 .data          0x100e8588        0x0 obj_emsk_22/gnu_arcem7d/middleware/mbedtls/library/pk_wrap.o
 .data          0x100e8588        0x0 obj_emsk_22/gnu_arcem7d/middleware/mbedtls/library/base64.o
 .data          0x100e8588        0x0 obj_emsk_22/gnu_arcem7d/middleware/mbedtls/library/md.o
 .data          0x100e8588        0x0 obj_emsk_22/gnu_arcem7d/middleware/mbedtls/library/ccm.o
 .data          0x100e8588       0x1c obj_emsk_22/gnu_arcem7d/middleware/mbedtls/library/ecp_curves.o
 .data          0x100e85a4        0x0 obj_emsk_22/gnu_arcem7d/middleware/mbedtls/library/arc4.o
 .data          0x100e85a4        0x0 obj_emsk_22/gnu_arcem7d/middleware/mbedtls/library/ecp.o
 .data          0x100e85a4        0x0 obj_emsk_22/gnu_arcem7d/middleware/mbedtls/library/ecdh.o
 .data          0x100e85a4        0x0 obj_emsk_22/gnu_arcem7d/middleware/mbedtls/library/cipher_wrap.o
 .data          0x100e85a4        0x0 obj_emsk_22/gnu_arcem7d/middleware/mbedtls/library/des.o
 .data          0x100e85a4        0x0 obj_emsk_22/gnu_arcem7d/middleware/mbedtls/library/md5.o
 .data          0x100e85a4        0x0 obj_emsk_22/gnu_arcem7d/middleware/mbedtls/library/pkcs5.o
 .data          0x100e85a4        0x0 obj_emsk_22/gnu_arcem7d/middleware/mbedtls/library/gcm.o
 .data          0x100e85a4        0x0 obj_emsk_22/gnu_arcem7d/middleware/mbedtls/library/sha256.o
 .data          0x100e85a4        0x0 obj_emsk_22/gnu_arcem7d/middleware/mbedtls/library/ssl_srv.o
 .data          0x100e85a4        0x0 obj_emsk_22/gnu_arcem7d/middleware/mbedtls/library/ecdsa.o
 .data          0x100e85a4        0x0 obj_emsk_22/gnu_arcem7d/middleware/mbedtls/library/md_wrap.o
 .data          0x100e85a4        0x0 obj_emsk_22/gnu_arcem7d/middleware/mbedtls/library/hmac_drbg.o
 .data          0x100e85a4        0x0 obj_emsk_22/gnu_arcem7d/middleware/u8glib/csrc/u8g_com_embarc_ssd1306_i2c.o
 .data          0x100e85a4        0x0 obj_emsk_22/gnu_arcem7d/middleware/u8glib/csrc/u8g_com_api.o
 .data          0x100e85a4        0x0 obj_emsk_22/gnu_arcem7d/middleware/u8glib/csrc/u8g_page.o
 .data          0x100e85a4        0x0 obj_emsk_22/gnu_arcem7d/middleware/lwip/src/api/api_msg.o
 .data          0x100e85a4       0x20 obj_emsk_22/gnu_arcem7d/middleware/mbedtls/library/ripemd160.o
 .data          0x100e85c4        0x0 obj_emsk_22/gnu_arcem7d/middleware/mbedtls/library/camellia.o
 .data          0x100e85c4        0x0 obj_emsk_22/gnu_arcem7d/middleware/mbedtls/library/asn1write.o
 .data          0x100e85c4        0x0 obj_emsk_22/gnu_arcem7d/middleware/mbedtls/library/blowfish.o
 .data          0x100e85c4        0x0 d:/arc_gnu/bin/../lib/gcc/arc-elf32/7.1.1/../../../../arc-elf32/lib/em4_dmips\libc.a(lib_a-atoi.o)
 .data          0x100e85c4        0x0 d:/arc_gnu/bin/../lib/gcc/arc-elf32/7.1.1/../../../../arc-elf32/lib/em4_dmips\libc.a(lib_a-calloc.o)
 .data          0x100e85c4        0x0 d:/arc_gnu/bin/../lib/gcc/arc-elf32/7.1.1/../../../../arc-elf32/lib/em4_dmips\libc.a(lib_a-callocr.o)
 .data          0x100e85c4        0x0 d:/arc_gnu/bin/../lib/gcc/arc-elf32/7.1.1/../../../../arc-elf32/lib/em4_dmips\libc.a(lib_a-fclose.o)
 .data          0x100e85c4        0x0 d:/arc_gnu/bin/../lib/gcc/arc-elf32/7.1.1/../../../../arc-elf32/lib/em4_dmips\libc.a(lib_a-fflush.o)
 .data          0x100e85c4        0x0 d:/arc_gnu/bin/../lib/gcc/arc-elf32/7.1.1/../../../../arc-elf32/lib/em4_dmips\libc.a(lib_a-fgets.o)
 .data          0x100e85c4        0x0 d:/arc_gnu/bin/../lib/gcc/arc-elf32/7.1.1/../../../../arc-elf32/lib/em4_dmips\libc.a(lib_a-findfp.o)
 .data          0x100e85c4        0x0 d:/arc_gnu/bin/../lib/gcc/arc-elf32/7.1.1/../../../../arc-elf32/lib/em4_dmips\libc.a(lib_a-fopen.o)
 .data          0x100e85c4        0x0 d:/arc_gnu/bin/../lib/gcc/arc-elf32/7.1.1/../../../../arc-elf32/lib/em4_dmips\libc.a(lib_a-fprintf.o)
 .data          0x100e85c4        0x0 d:/arc_gnu/bin/../lib/gcc/arc-elf32/7.1.1/../../../../arc-elf32/lib/em4_dmips\libc.a(lib_a-fread.o)
 .data          0x100e85c4        0x0 d:/arc_gnu/bin/../lib/gcc/arc-elf32/7.1.1/../../../../arc-elf32/lib/em4_dmips\libc.a(lib_a-freer.o)
 .data          0x100e85c4        0x0 d:/arc_gnu/bin/../lib/gcc/arc-elf32/7.1.1/../../../../arc-elf32/lib/em4_dmips\libc.a(lib_a-fseek.o)
 .data          0x100e85c4        0x0 d:/arc_gnu/bin/../lib/gcc/arc-elf32/7.1.1/../../../../arc-elf32/lib/em4_dmips\libc.a(lib_a-fseeko.o)
 .data          0x100e85c4        0x0 d:/arc_gnu/bin/../lib/gcc/arc-elf32/7.1.1/../../../../arc-elf32/lib/em4_dmips\libc.a(lib_a-fstatr.o)
 .data          0x100e85c4        0x0 d:/arc_gnu/bin/../lib/gcc/arc-elf32/7.1.1/../../../../arc-elf32/lib/em4_dmips\libc.a(lib_a-ftell.o)
 .data          0x100e85c4        0x0 d:/arc_gnu/bin/../lib/gcc/arc-elf32/7.1.1/../../../../arc-elf32/lib/em4_dmips\libc.a(lib_a-ftello.o)
 .data          0x100e85c4        0x0 d:/arc_gnu/bin/../lib/gcc/arc-elf32/7.1.1/../../../../arc-elf32/lib/em4_dmips\libc.a(lib_a-fwalk.o)
 .data          0x100e85c4        0x0 d:/arc_gnu/bin/../lib/gcc/arc-elf32/7.1.1/../../../../arc-elf32/lib/em4_dmips\libc.a(lib_a-fwrite.o)
 .data          0x100e85c4        0x0 d:/arc_gnu/bin/../lib/gcc/arc-elf32/7.1.1/../../../../arc-elf32/lib/em4_dmips\libc.a(lib_a-gmtime.o)
 .data          0x100e85c4        0x0 d:/arc_gnu/bin/../lib/gcc/arc-elf32/7.1.1/../../../../arc-elf32/lib/em4_dmips\libc.a(lib_a-gmtime_r.o)
 .data          0x100e85c4      0x424 d:/arc_gnu/bin/../lib/gcc/arc-elf32/7.1.1/../../../../arc-elf32/lib/em4_dmips\libc.a(lib_a-impure.o)
 .data          0x100e89e8        0x0 d:/arc_gnu/bin/../lib/gcc/arc-elf32/7.1.1/../../../../arc-elf32/lib/em4_dmips\libc.a(lib_a-lcltime.o)
 .data          0x100e89e8        0x0 d:/arc_gnu/bin/../lib/gcc/arc-elf32/7.1.1/../../../../arc-elf32/lib/em4_dmips\libc.a(lib_a-lcltime_r.o)
 .data          0x100e89e8        0x0 d:/arc_gnu/bin/../lib/gcc/arc-elf32/7.1.1/../../../../arc-elf32/lib/em4_dmips\libc.a(lib_a-makebuf.o)
 .data          0x100e89e8        0x0 d:/arc_gnu/bin/../lib/gcc/arc-elf32/7.1.1/../../../../arc-elf32/lib/em4_dmips\libc.a(lib_a-malloc.o)
 .data          0x100e89e8      0x408 d:/arc_gnu/bin/../lib/gcc/arc-elf32/7.1.1/../../../../arc-elf32/lib/em4_dmips\libc.a(lib_a-mallocr.o)
                0x100e89e8                __malloc_av_
 .data          0x100e8df0        0x0 d:/arc_gnu/bin/../lib/gcc/arc-elf32/7.1.1/../../../../arc-elf32/lib/em4_dmips\libc.a(lib_a-memchr.o)
 .data          0x100e8df0        0x0 d:/arc_gnu/bin/../lib/gcc/arc-elf32/7.1.1/../../../../arc-elf32/lib/em4_dmips\libc.a(lib_a-memcmp-bs-norm.o)
 .data          0x100e8df0        0x0 d:/arc_gnu/bin/../lib/gcc/arc-elf32/7.1.1/../../../../arc-elf32/lib/em4_dmips\libc.a(lib_a-memcpy-bs.o)
 .data          0x100e8df0        0x0 d:/arc_gnu/bin/../lib/gcc/arc-elf32/7.1.1/../../../../arc-elf32/lib/em4_dmips\libc.a(lib_a-memmove.o)
 .data          0x100e8df0        0x0 d:/arc_gnu/bin/../lib/gcc/arc-elf32/7.1.1/../../../../arc-elf32/lib/em4_dmips\libc.a(lib_a-memset-bs.o)
 .data          0x100e8df0        0x0 d:/arc_gnu/bin/../lib/gcc/arc-elf32/7.1.1/../../../../arc-elf32/lib/em4_dmips\libc.a(lib_a-mlock.o)
 .data          0x100e8df0        0x0 d:/arc_gnu/bin/../lib/gcc/arc-elf32/7.1.1/../../../../arc-elf32/lib/em4_dmips\libc.a(lib_a-month_lengths.o)
 .data          0x100e8df0        0x0 d:/arc_gnu/bin/../lib/gcc/arc-elf32/7.1.1/../../../../arc-elf32/lib/em4_dmips\libc.a(lib_a-openr.o)
 .data          0x100e8df0        0x0 d:/arc_gnu/bin/../lib/gcc/arc-elf32/7.1.1/../../../../arc-elf32/lib/em4_dmips\libc.a(lib_a-printf.o)
 .data          0x100e8df0        0x0 d:/arc_gnu/bin/../lib/gcc/arc-elf32/7.1.1/../../../../arc-elf32/lib/em4_dmips\libc.a(lib_a-putchar.o)
 .data          0x100e8df0        0x0 d:/arc_gnu/bin/../lib/gcc/arc-elf32/7.1.1/../../../../arc-elf32/lib/em4_dmips\libc.a(lib_a-puts.o)
 .data          0x100e8df0        0x0 d:/arc_gnu/bin/../lib/gcc/arc-elf32/7.1.1/../../../../arc-elf32/lib/em4_dmips\libc.a(lib_a-rand.o)
 .data          0x100e8df0        0x0 d:/arc_gnu/bin/../lib/gcc/arc-elf32/7.1.1/../../../../arc-elf32/lib/em4_dmips\libc.a(lib_a-reent.o)
 .data          0x100e8df0        0x0 d:/arc_gnu/bin/../lib/gcc/arc-elf32/7.1.1/../../../../arc-elf32/lib/em4_dmips\libc.a(lib_a-refill.o)
 .data          0x100e8df0        0x0 d:/arc_gnu/bin/../lib/gcc/arc-elf32/7.1.1/../../../../arc-elf32/lib/em4_dmips\libc.a(lib_a-sbrkr.o)
 .data          0x100e8df0        0x0 d:/arc_gnu/bin/../lib/gcc/arc-elf32/7.1.1/../../../../arc-elf32/lib/em4_dmips\libc.a(lib_a-snprintf.o)
 .data          0x100e8df0        0x0 d:/arc_gnu/bin/../lib/gcc/arc-elf32/7.1.1/../../../../arc-elf32/lib/em4_dmips\libc.a(lib_a-sprintf.o)
 .data          0x100e8df0        0x0 d:/arc_gnu/bin/../lib/gcc/arc-elf32/7.1.1/../../../../arc-elf32/lib/em4_dmips\libc.a(lib_a-stdio.o)
 .data          0x100e8df0        0x0 d:/arc_gnu/bin/../lib/gcc/arc-elf32/7.1.1/../../../../arc-elf32/lib/em4_dmips\libc.a(lib_a-strcat.o)
 .data          0x100e8df0        0x0 d:/arc_gnu/bin/../lib/gcc/arc-elf32/7.1.1/../../../../arc-elf32/lib/em4_dmips\libc.a(lib_a-strcmp.o)
 .data          0x100e8df0        0x0 d:/arc_gnu/bin/../lib/gcc/arc-elf32/7.1.1/../../../../arc-elf32/lib/em4_dmips\libc.a(lib_a-strcpy-bs.o)
 .data          0x100e8df0        0x0 d:/arc_gnu/bin/../lib/gcc/arc-elf32/7.1.1/../../../../arc-elf32/lib/em4_dmips\libc.a(lib_a-strlen-bs-norm.o)
 .data          0x100e8df0        0x0 d:/arc_gnu/bin/../lib/gcc/arc-elf32/7.1.1/../../../../arc-elf32/lib/em4_dmips\libc.a(lib_a-strncmp.o)
 .data          0x100e8df0        0x0 d:/arc_gnu/bin/../lib/gcc/arc-elf32/7.1.1/../../../../arc-elf32/lib/em4_dmips\libc.a(lib_a-strncpy-bs.o)
 .data          0x100e8df0        0x0 d:/arc_gnu/bin/../lib/gcc/arc-elf32/7.1.1/../../../../arc-elf32/lib/em4_dmips\libc.a(lib_a-strstr.o)
 .data          0x100e8df0        0x0 d:/arc_gnu/bin/../lib/gcc/arc-elf32/7.1.1/../../../../arc-elf32/lib/em4_dmips\libc.a(lib_a-strtol.o)
 .data          0x100e8df0        0x0 d:/arc_gnu/bin/../lib/gcc/arc-elf32/7.1.1/../../../../arc-elf32/lib/em4_dmips\libc.a(lib_a-svfprintf.o)
 .data          0x100e8df0        0x0 d:/arc_gnu/bin/../lib/gcc/arc-elf32/7.1.1/../../../../arc-elf32/lib/em4_dmips\libc.a(lib_a-sysstat.o)
 .data          0x100e8df0        0x0 d:/arc_gnu/bin/../lib/gcc/arc-elf32/7.1.1/../../../../arc-elf32/lib/em4_dmips\libc.a(lib_a-time.o)
 .data          0x100e8df0        0x0 d:/arc_gnu/bin/../lib/gcc/arc-elf32/7.1.1/../../../../arc-elf32/lib/em4_dmips\libc.a(lib_a-tzcalc_limits.o)
 .data          0x100e8df0        0x0 d:/arc_gnu/bin/../lib/gcc/arc-elf32/7.1.1/../../../../arc-elf32/lib/em4_dmips\libc.a(lib_a-tzlock.o)
 .data          0x100e8df0        0x0 d:/arc_gnu/bin/../lib/gcc/arc-elf32/7.1.1/../../../../arc-elf32/lib/em4_dmips\libc.a(lib_a-tzset.o)
 .data          0x100e8df0        0x0 d:/arc_gnu/bin/../lib/gcc/arc-elf32/7.1.1/../../../../arc-elf32/lib/em4_dmips\libc.a(lib_a-tzset_r.o)
 .data          0x100e8df0        0x8 d:/arc_gnu/bin/../lib/gcc/arc-elf32/7.1.1/../../../../arc-elf32/lib/em4_dmips\libc.a(lib_a-tzvars.o)
                0x100e8df0                _tzname
 .data          0x100e8df8        0x0 d:/arc_gnu/bin/../lib/gcc/arc-elf32/7.1.1/../../../../arc-elf32/lib/em4_dmips\libc.a(lib_a-vfprintf.o)
 .data          0x100e8df8        0x0 d:/arc_gnu/bin/../lib/gcc/arc-elf32/7.1.1/../../../../arc-elf32/lib/em4_dmips\libc.a(lib_a-vsnprintf.o)
 .data          0x100e8df8        0x0 d:/arc_gnu/bin/../lib/gcc/arc-elf32/7.1.1/../../../../arc-elf32/lib/em4_dmips\libc.a(lib_a-writer.o)
 .data          0x100e8df8        0x0 d:/arc_gnu/bin/../lib/gcc/arc-elf32/7.1.1/../../../../arc-elf32/lib/em4_dmips\libc.a(lib_a-wsetup.o)
 .data          0x100e8df8        0x0 d:/arc_gnu/bin/../lib/gcc/arc-elf32/7.1.1/../../../../arc-elf32/lib/em4_dmips\libc.a(lib_a-closer.o)
 .data          0x100e8df8        0x0 d:/arc_gnu/bin/../lib/gcc/arc-elf32/7.1.1/../../../../arc-elf32/lib/em4_dmips\libc.a(lib_a-dtoa.o)
 .data          0x100e8df8        0x0 d:/arc_gnu/bin/../lib/gcc/arc-elf32/7.1.1/../../../../arc-elf32/lib/em4_dmips\libc.a(lib_a-flags.o)
 .data          0x100e8df8        0x0 d:/arc_gnu/bin/../lib/gcc/arc-elf32/7.1.1/../../../../arc-elf32/lib/em4_dmips\libc.a(lib_a-fvwrite.o)
 .data          0x100e8df8        0x0 d:/arc_gnu/bin/../lib/gcc/arc-elf32/7.1.1/../../../../arc-elf32/lib/em4_dmips\libc.a(lib_a-getenv_r.o)
 .data          0x100e8df8        0x0 d:/arc_gnu/bin/../lib/gcc/arc-elf32/7.1.1/../../../../arc-elf32/lib/em4_dmips\libc.a(lib_a-gettimeofdayr.o)
 .data          0x100e8df8       0x40 d:/arc_gnu/bin/../lib/gcc/arc-elf32/7.1.1/../../../../arc-elf32/lib/em4_dmips\libc.a(lib_a-gettzinfo.o)
 .data          0x100e8e38        0x0 d:/arc_gnu/bin/../lib/gcc/arc-elf32/7.1.1/../../../../arc-elf32/lib/em4_dmips\libc.a(lib_a-isattyr.o)
 .data          0x100e8e38      0x16c d:/arc_gnu/bin/../lib/gcc/arc-elf32/7.1.1/../../../../arc-elf32/lib/em4_dmips\libc.a(lib_a-locale.o)
                0x100e8e38                __global_locale
 .data          0x100e8fa4        0x0 d:/arc_gnu/bin/../lib/gcc/arc-elf32/7.1.1/../../../../arc-elf32/lib/em4_dmips\libc.a(lib_a-localeconv.o)
 .data          0x100e8fa4        0x0 d:/arc_gnu/bin/../lib/gcc/arc-elf32/7.1.1/../../../../arc-elf32/lib/em4_dmips\libc.a(lib_a-lseekr.o)
 .data          0x100e8fa4        0x0 d:/arc_gnu/bin/../lib/gcc/arc-elf32/7.1.1/../../../../arc-elf32/lib/em4_dmips\libc.a(lib_a-mbtowc_r.o)
 .data          0x100e8fa4        0x0 d:/arc_gnu/bin/../lib/gcc/arc-elf32/7.1.1/../../../../arc-elf32/lib/em4_dmips\libc.a(lib_a-mprec.o)
 .data          0x100e8fa4        0x0 d:/arc_gnu/bin/../lib/gcc/arc-elf32/7.1.1/../../../../arc-elf32/lib/em4_dmips\libc.a(lib_a-putc.o)
 .data          0x100e8fa4        0x0 d:/arc_gnu/bin/../lib/gcc/arc-elf32/7.1.1/../../../../arc-elf32/lib/em4_dmips\libc.a(lib_a-readr.o)
 .data          0x100e8fa4        0x0 d:/arc_gnu/bin/../lib/gcc/arc-elf32/7.1.1/../../../../arc-elf32/lib/em4_dmips\libc.a(lib_a-reallocr.o)
 .data          0x100e8fa4        0x0 d:/arc_gnu/bin/../lib/gcc/arc-elf32/7.1.1/../../../../arc-elf32/lib/em4_dmips\libc.a(lib_a-siscanf.o)
 .data          0x100e8fa4        0x0 d:/arc_gnu/bin/../lib/gcc/arc-elf32/7.1.1/../../../../arc-elf32/lib/em4_dmips\libc.a(lib_a-statr.o)
 .data          0x100e8fa4        0x0 d:/arc_gnu/bin/../lib/gcc/arc-elf32/7.1.1/../../../../arc-elf32/lib/em4_dmips\libc.a(lib_a-strchr-bs-norm.o)
 .data          0x100e8fa4        0x0 d:/arc_gnu/bin/../lib/gcc/arc-elf32/7.1.1/../../../../arc-elf32/lib/em4_dmips\libc.a(lib_a-strtoul.o)
 .data          0x100e8fa4        0x0 d:/arc_gnu/bin/../lib/gcc/arc-elf32/7.1.1/../../../../arc-elf32/lib/em4_dmips\libc.a(lib_a-svfiprintf.o)
 .data          0x100e8fa4        0x0 d:/arc_gnu/bin/../lib/gcc/arc-elf32/7.1.1/../../../../arc-elf32/lib/em4_dmips\libc.a(lib_a-svfiscanf.o)
 .data          0x100e8fa4        0x0 d:/arc_gnu/bin/../lib/gcc/arc-elf32/7.1.1/../../../../arc-elf32/lib/em4_dmips\libc.a(lib_a-ungetc.o)
 .data          0x100e8fa4        0x0 d:/arc_gnu/bin/../lib/gcc/arc-elf32/7.1.1/../../../../arc-elf32/lib/em4_dmips\libc.a(lib_a-vfiprintf.o)
 .data          0x100e8fa4        0x0 d:/arc_gnu/bin/../lib/gcc/arc-elf32/7.1.1/../../../../arc-elf32/lib/em4_dmips\libc.a(lib_a-wbuf.o)
 .data          0x100e8fa4        0x0 d:/arc_gnu/bin/../lib/gcc/arc-elf32/7.1.1/../../../../arc-elf32/lib/em4_dmips\libc.a(lib_a-wctomb_r.o)
 .data          0x100e8fa4        0x0 d:/arc_gnu/bin/../lib/gcc/arc-elf32/7.1.1/../../../../arc-elf32/lib/em4_dmips\libc.a(lib_a-ctype_.o)
 .data          0x100e8fa4        0x0 d:/arc_gnu/bin/../lib/gcc/arc-elf32/7.1.1/../../../../arc-elf32/lib/em4_dmips\libc.a(lib_a-environ.o)
 .data          0x100e8fa4        0x0 d:/arc_gnu/bin/../lib/gcc/arc-elf32/7.1.1/../../../../arc-elf32/lib/em4_dmips\libc.a(lib_a-envlock.o)
 .data          0x100e8fa4        0x0 d:/arc_gnu/bin/../lib/gcc/arc-elf32/7.1.1/../../../../arc-elf32/lib/em4_dmips\libc.a(lib_a-fputwc.o)
 .data          0x100e8fa4        0x0 d:/arc_gnu/bin/../lib/gcc/arc-elf32/7.1.1/../../../../arc-elf32/lib/em4_dmips\libc.a(lib_a-iswspace.o)
 .data          0x100e8fa4        0x0 d:/arc_gnu/bin/../lib/gcc/arc-elf32/7.1.1/../../../../arc-elf32/lib/em4_dmips\libc.a(lib_a-mbrtowc.o)
 .data          0x100e8fa4        0x0 d:/arc_gnu/bin/../lib/gcc/arc-elf32/7.1.1/../../../../arc-elf32/lib/em4_dmips\libc.a(lib_a-sccl.o)
 .data          0x100e8fa4        0x0 d:/arc_gnu/bin/../lib/gcc/arc-elf32/7.1.1/../../../../arc-elf32/lib/em4_dmips\libc.a(lib_a-strtoll.o)
 .data          0x100e8fa4        0x0 d:/arc_gnu/bin/../lib/gcc/arc-elf32/7.1.1/../../../../arc-elf32/lib/em4_dmips\libc.a(lib_a-strtoull.o)
 .data          0x100e8fa4        0x0 d:/arc_gnu/bin/../lib/gcc/arc-elf32/7.1.1/../../../../arc-elf32/lib/em4_dmips\libc.a(lib_a-wcrtomb.o)
 .data          0x100e8fa4        0x0 d:/arc_gnu/bin/../lib/gcc/arc-elf32/7.1.1/em4_dmips\libgcc.a(_udivdi3.o)
 .data          0x100e8fa4        0x0 d:/arc_gnu/bin/../lib/gcc/arc-elf32/7.1.1/em4_dmips\libgcc.a(_umoddi3.o)
 .data          0x100e8fa4        0x0 d:/arc_gnu/bin/../lib/gcc/arc-elf32/7.1.1/em4_dmips\libgcc.a(fp-bit.o)
 .data          0x100e8fa4        0x0 d:/arc_gnu/bin/../lib/gcc/arc-elf32/7.1.1/em4_dmips\libgcc.a(dp-bit.o)
 .data          0x100e8fa4        0x0 obj_emsk_22/gnu_arcem7d/library/clib/embarc_sbrk.o
 .data          0x100e8fa4       0x84 obj_emsk_22/gnu_arcem7d/library/clib/embarc_syscalls.o
                0x100e9024                _environ
 .data          0x100e9028        0x0 obj_emsk_22/gnu_arcem7d/library/clib/embarc_target.o
 .data          0x100e9028        0x0 d:/arc_gnu/bin/../lib/gcc/arc-elf32/7.1.1/../../../../arc-elf32/lib/em4_dmips\libc.a(lib_a-mktime.o)
 .data          0x100e9028        0x0 d:/arc_gnu/bin/../lib/gcc/arc-elf32/7.1.1/../../../../arc-elf32/lib/em4_dmips\libc.a(lib_a-sscanf.o)
 .data          0x100e9028        0x0 d:/arc_gnu/bin/../lib/gcc/arc-elf32/7.1.1/../../../../arc-elf32/lib/em4_dmips\libc.a(lib_a-svfscanf.o)
 .data          0x100e9028        0x0 d:/arc_gnu/bin/../lib/gcc/arc-elf32/7.1.1/../../../../arc-elf32/lib/em4_dmips\libc.a(lib_a-div.o)
 .data          0x100e9028        0x0 d:/arc_gnu/bin/../lib/gcc/arc-elf32/7.1.1/../../../../arc-elf32/lib/em4_dmips\libc.a(lib_a-sf_nan.o)
 .data          0x100e9028        0x0 d:/arc_gnu/bin/../lib/gcc/arc-elf32/7.1.1/../../../../arc-elf32/lib/em4_dmips\libc.a(lib_a-strtod.o)
 .data          0x100e9028        0x0 d:/arc_gnu/bin/../lib/gcc/arc-elf32/7.1.1/../../../../arc-elf32/lib/em4_dmips\libc.a(lib_a-gdtoa-gethex.o)
 .data          0x100e9028        0x0 d:/arc_gnu/bin/../lib/gcc/arc-elf32/7.1.1/../../../../arc-elf32/lib/em4_dmips\libc.a(lib_a-gdtoa-hexnan.o)
                0x100e9028                _f_sdata = .
                0x100e9028                __SDATA_BEGIN__ = .
 *(.sdata .sdata.* .gnu.linkonce.s.*)
 .sdata         0x100e9028        0x4 d:/arc_gnu/bin/../lib/gcc/arc-elf32/7.1.1/../../../../arc-elf32/lib/em4_dmips\libc.a(lib_a-impure.o)
                0x100e9028                _impure_ptr
 .sdata         0x100e902c        0x8 d:/arc_gnu/bin/../lib/gcc/arc-elf32/7.1.1/../../../../arc-elf32/lib/em4_dmips\libc.a(lib_a-mallocr.o)
                0x100e902c                __malloc_sbrk_base
                0x100e9030                __malloc_trim_threshold
 .sdata         0x100e9034        0x4 d:/arc_gnu/bin/../lib/gcc/arc-elf32/7.1.1/../../../../arc-elf32/lib/em4_dmips\libc.a(lib_a-environ.o)
                0x100e9034                environ
                0x100e9038                _e_sdata = .
                0x100e9038                _e_data = .

.bss            0x100e9038   0x119cbc
                [!provide]                PROVIDE (__sbss_start, .)
                [!provide]                PROVIDE (___sbss_start, .)
                0x100e9038                _f_bss = .
                0x100e9038                _f_sbss = .
 *(.dynsbss)
 *(.sbss .sbss.* .gnu.linkonce.sb.*)
 .sbss          0x100e9038        0xc d:/arc_gnu/bin/../lib/gcc/arc-elf32/7.1.1/../../../../arc-elf32/lib/em4_dmips\libc.a(lib_a-mallocr.o)
                0x100e9038                __malloc_max_total_mem
                0x100e903c                __malloc_max_sbrked_mem
                0x100e9040                __malloc_top_pad
 .sbss          0x100e9044        0x4 d:/arc_gnu/bin/../lib/gcc/arc-elf32/7.1.1/../../../../arc-elf32/lib/em4_dmips\libc.a(lib_a-reent.o)
                0x100e9044                errno
 .sbss          0x100e9048        0x8 d:/arc_gnu/bin/../lib/gcc/arc-elf32/7.1.1/../../../../arc-elf32/lib/em4_dmips\libc.a(lib_a-tzvars.o)
                0x100e9048                _timezone
                0x100e904c                _daylight
 .sbss          0x100e9050        0x4 d:/arc_gnu/bin/../lib/gcc/arc-elf32/7.1.1/../../../../arc-elf32/lib/em4_dmips\libc.a(lib_a-locale.o)
                0x100e9050                _PathLocale
 *(.scommon)
                0x100e9054                _e_sbss = .
                [!provide]                PROVIDE (__sbss_end, .)
                [!provide]                PROVIDE (___sbss_end, .)
 *(.dynbss)
 *(.bss .bss.* .gnu.linkonce.b.*)
 .bss           0x100e9054        0x0 obj_emsk_22/gnu_arcem7d/application/./Source/main.o
 .bss           0x100e9054      0x25c obj_emsk_22/gnu_arcem7d/board/board.o
 .bss           0x100e92b0        0x4 obj_emsk_22/gnu_arcem7d/arc/startup/arc_cxx_support.o
                0x100e92b0                __dso_handle
 .bss           0x100e92b4        0x0 obj_emsk_22/gnu_arcem7d/arc/startup/arc_startup.o
 .bss           0x100e92b4        0x0 obj_emsk_22/gnu_arcem7d/board/emsk/common/emsk_init.o
 .bss           0x100e92b4        0x4 obj_emsk_22/gnu_arcem7d/board/emsk/drivers/mux/mux.o
 .bss           0x100e92b8      0xe54 obj_emsk_22/gnu_arcem7d/board/emsk/drivers/pmwifi/pmwifi.o
 .bss           0x100ea10c        0x8 obj_emsk_22/gnu_arcem7d/middleware/common/console_io.o
 .bss           0x100ea114        0x4 obj_emsk_22/gnu_arcem7d/middleware/common/xprintf/xprintf.o
 .bss           0x100ea118      0x208 obj_emsk_22/gnu_arcem7d/middleware/fatfs/src/ff.o
 .bss           0x100ea320        0x0 obj_emsk_22/gnu_arcem7d/middleware/fatfs/src/ff_unicode.o
 .bss           0x100ea320       0x60 obj_emsk_22/gnu_arcem7d/middleware/lwip-contrib/ports/arc/lwip_pmwifi.o
 .bss           0x100ea380        0x4 obj_emsk_22/gnu_arcem7d/middleware/lwip-contrib/ports/arc/netif/pmwifi_netif.o
 .bss           0x100ea384        0x0 obj_emsk_22/gnu_arcem7d/middleware/lwip-contrib/ports/arc/sys_arch/freertos/sys_arch.o
 .bss           0x100ea384        0x0 obj_emsk_22/gnu_arcem7d/middleware/vending-machine/source/led_task.o
 .bss           0x100ea384        0x0 obj_emsk_22/gnu_arcem7d/middleware/vending-machine/source/temp_task.o
 .bss           0x100ea384        0x0 obj_emsk_22/gnu_arcem7d/middleware/vending-machine/source/vm_task.o
 .bss           0x100ea384      0x11c obj_emsk_22/gnu_arcem7d/middleware/vending-machine/source/oled_task.o
                0x100ea384                type
                0x100ea3a0                oled_status
                0x100ea3a4                user_receive_status
                0x100ea3a8                oled_data
                0x100ea3dc                draw_state
 .bss           0x100ea4a0      0x148 obj_emsk_22/gnu_arcem7d/middleware/vending-machine/source/numpad_task.o
 .bss           0x100ea5e8        0x0 obj_emsk_22/gnu_arcem7d/middleware/vending-machine/source/communication_task.o
 .bss           0x100ea5e8        0x0 obj_emsk_22/gnu_arcem7d/os/freertos/portable/synopsys/arc/arc_freertos_exceptions.o
 .bss           0x100ea5e8      0x170 obj_emsk_22/gnu_arcem7d/os/freertos/tasks.o
                0x100ea5e8                pxCurrentTCB
 .bss           0x100ea758        0x0 obj_emsk_22/gnu_arcem7d/os/freertos/list.o
 .bss           0x100ea758        0x0 obj_emsk_22/gnu_arcem7d/os/freertos/queue.o
 .bss           0x100ea758        0x0 obj_emsk_22/gnu_arcem7d/arc/arc_timer.o
 .bss           0x100ea758       0x10 obj_emsk_22/gnu_arcem7d/arc/arc_cache.o
 .bss           0x100ea768        0x0 obj_emsk_22/gnu_arcem7d/arc/arc_exception.o
 .bss           0x100ea768        0x0 obj_emsk_22/gnu_arcem7d/arc/arc_exc_asm.o
 .bss           0x100ea768        0x0 obj_emsk_22/gnu_arcem7d/library/clib/embarc_misc.o
 .bss           0x100ea768      0x194 obj_emsk_22/gnu_arcem7d/board/emsk/drivers/ip/designware/gpio/dw_gpio_obj.o
 .bss           0x100ea8fc        0x4 obj_emsk_22/gnu_arcem7d/board/emsk/drivers/ip/designware/uart/dw_uart_obj.o
 .bss           0x100ea900        0x0 obj_emsk_22/gnu_arcem7d/device/ip/designware/gpio/dw_gpio.o
 .bss           0x100ea900        0x0 obj_emsk_22/gnu_arcem7d/device/ip/designware/uart/dw_uart.o
 .bss           0x100ea900        0x0 obj_emsk_22/gnu_arcem7d/device/peripheral/sensor/temperature/adt7420/adt7420.o
 .bss           0x100ea900        0x0 obj_emsk_22/gnu_arcem7d/device/peripheral/wifi/rw009/rw009.o
 .bss           0x100ea900        0xc obj_emsk_22/gnu_arcem7d/board/emsk/common/emsk_gpio.o
 .bss           0x100ea90c       0x14 obj_emsk_22/gnu_arcem7d/board/emsk/common/emsk_timer.o
                0x100ea90c                gl_emsk_sys_hz_cnt
                0x100ea914                gl_emsk_ms_cnt
 .bss           0x100ea920        0x0 obj_emsk_22/gnu_arcem7d/board/emsk/drivers/sdcard/emsk_sdcard.o
 .bss           0x100ea920        0x0 obj_emsk_22/gnu_arcem7d/middleware/fatfs/src/diskio.o
 .bss           0x100ea920        0x0 obj_emsk_22/gnu_arcem7d/middleware/lwip/src/core/pbuf.o
 .bss           0x100ea920      0x48c obj_emsk_22/gnu_arcem7d/middleware/lwip/src/core/dns.o
 .bss           0x100eadac       0x10 obj_emsk_22/gnu_arcem7d/middleware/lwip/src/core/mem.o
 .bss           0x100eadbc        0x0 obj_emsk_22/gnu_arcem7d/middleware/lwip/src/core/udp.o
 .bss           0x100eadbc        0x0 obj_emsk_22/gnu_arcem7d/middleware/lwip/src/core/def.o
 .bss           0x100eadbc        0x2 obj_emsk_22/gnu_arcem7d/middleware/lwip/src/core/tcp.o
 .bss           0x100eadbe        0x1 obj_emsk_22/gnu_arcem7d/middleware/lwip/src/core/netif.o
 *fill*         0x100eadbf        0x1 
 .bss           0x100eadc0        0xc obj_emsk_22/gnu_arcem7d/middleware/lwip/src/core/timeouts.o
 .bss           0x100eadcc       0x38 obj_emsk_22/gnu_arcem7d/middleware/lwip/src/core/tcp_in.o
 .bss           0x100eae04       0x3c obj_emsk_22/gnu_arcem7d/middleware/lwip/src/core/memp.o
 .bss           0x100eae40        0x0 obj_emsk_22/gnu_arcem7d/middleware/lwip/src/core/inet_chksum.o
 .bss           0x100eae40        0x0 obj_emsk_22/gnu_arcem7d/middleware/lwip/src/core/ipv4/icmp.o
 .bss           0x100eae40        0x2 obj_emsk_22/gnu_arcem7d/middleware/lwip/src/core/ipv4/ip4.o
 *fill*         0x100eae42        0x2 
 .bss           0x100eae44       0x10 obj_emsk_22/gnu_arcem7d/middleware/lwip/src/core/ipv4/ip4_addr.o
 .bss           0x100eae54       0xf4 obj_emsk_22/gnu_arcem7d/middleware/lwip/src/core/ipv4/etharp.o
 .bss           0x100eaf48        0xc obj_emsk_22/gnu_arcem7d/middleware/lwip/src/core/ipv4/dhcp.o
 .bss           0x100eaf54        0x8 obj_emsk_22/gnu_arcem7d/middleware/lwip/src/core/ipv4/ip4_frag.o
 .bss           0x100eaf5c        0x0 obj_emsk_22/gnu_arcem7d/middleware/lwip/src/netif/ethernet.o
 .bss           0x100eaf5c        0xc obj_emsk_22/gnu_arcem7d/middleware/lwip/src/api/tcpip.o
 .bss           0x100eaf68        0x4 obj_emsk_22/gnu_arcem7d/middleware/mbedtls/library/ctr_drbg.o
 .bss           0x100eaf6c        0x0 obj_emsk_22/gnu_arcem7d/middleware/mbedtls/library/x509_crt.o
 .bss           0x100eaf6c        0x0 obj_emsk_22/gnu_arcem7d/middleware/mbedtls/library/x509.o
 .bss           0x100eaf6c      0x238 obj_emsk_22/gnu_arcem7d/middleware/mbedtls/library/ssl_ciphersuites.o
 .bss           0x100eb1a4        0x0 obj_emsk_22/gnu_arcem7d/middleware/mbedtls/library/certs.o
 .bss           0x100eb1a4       0x10 obj_emsk_22/gnu_arcem7d/middleware/mbedtls/library/threading.o
                0x100eb1a4                mbedtls_threading_readdir_mutex
                0x100eb1ac                mbedtls_threading_gmtime_mutex
 .bss           0x100eb1b4        0x0 obj_emsk_22/gnu_arcem7d/middleware/mbedtls/library/pk.o
 .bss           0x100eb1b4        0x0 obj_emsk_22/gnu_arcem7d/middleware/mbedtls/library/asn1parse.o
 .bss           0x100eb1b4        0x0 obj_emsk_22/gnu_arcem7d/middleware/mbedtls/library/rsa.o
 .bss           0x100eb1b4        0x0 obj_emsk_22/gnu_arcem7d/middleware/mbedtls/library/oid.o
 .bss           0x100eb1b4        0x0 obj_emsk_22/gnu_arcem7d/middleware/mbedtls/library/sha1.o
 .bss           0x100eb1b4        0x0 obj_emsk_22/gnu_arcem7d/middleware/mbedtls/library/pkparse.o
 .bss           0x100eb1b4        0x0 obj_emsk_22/gnu_arcem7d/middleware/mbedtls/library/ssl_tls.o
 .bss           0x100eb1b4        0x0 obj_emsk_22/gnu_arcem7d/middleware/mbedtls/library/dhm.o
 .bss           0x100eb1b4        0x4 obj_emsk_22/gnu_arcem7d/middleware/mbedtls/library/cipher.o
 .bss           0x100eb1b8        0x0 obj_emsk_22/gnu_arcem7d/middleware/mbedtls/library/sha512.o
 .bss           0x100eb1b8        0x0 obj_emsk_22/gnu_arcem7d/middleware/mbedtls/library/entropy.o
 .bss           0x100eb1b8     0x222c obj_emsk_22/gnu_arcem7d/middleware/mbedtls/library/aes.o
 .bss           0x100ed3e4        0x4 obj_emsk_22/gnu_arcem7d/middleware/mbedtls/library/debug.o
 .bss           0x100ed3e8        0x0 obj_emsk_22/gnu_arcem7d/middleware/mbedtls/library/havege.o
 .bss           0x100ed3e8        0x0 obj_emsk_22/gnu_arcem7d/middleware/mbedtls/library/entropy_poll.o
 .bss           0x100ed3e8        0x0 obj_emsk_22/gnu_arcem7d/middleware/mbedtls/library/error.o
 .bss           0x100ed3e8        0x0 obj_emsk_22/gnu_arcem7d/middleware/mbedtls/library/pem.o
 .bss           0x100ed3e8        0x0 obj_emsk_22/gnu_arcem7d/middleware/mbedtls/library/pkcs12.o
 .bss           0x100ed3e8        0x0 obj_emsk_22/gnu_arcem7d/middleware/mbedtls/embarc/threading_alt.o
 .bss           0x100ed3e8        0x4 obj_emsk_22/gnu_arcem7d/middleware/mbedtls/embarc/timing_alt.o
                0x100ed3e8                mbedtls_timing_alarmed
 .bss           0x100ed3ec        0x0 obj_emsk_22/gnu_arcem7d/middleware/mbedtls/embarc/net_alt.o
 .bss           0x100ed3ec       0x10 obj_emsk_22/gnu_arcem7d/middleware/u8glib/csrc/u8g_com_embarc_ssd1306_spi.o
 .bss           0x100ed3fc      0x100 obj_emsk_22/gnu_arcem7d/middleware/u8glib/csrc/u8g_dev_embarc_ssd1306_128x64.o
                0x100ed3fc                u8g_dev_ssd1306_128x64_2x_buf
 .bss           0x100ed4fc        0x0 obj_emsk_22/gnu_arcem7d/middleware/u8glib/csrc/u8g_pb.o
 .bss           0x100ed4fc        0x0 obj_emsk_22/gnu_arcem7d/middleware/u8glib/csrc/u8g_pb16v1.o
 .bss           0x100ed4fc        0x0 obj_emsk_22/gnu_arcem7d/middleware/u8glib/csrc/u8g_font.o
 .bss           0x100ed4fc        0x0 obj_emsk_22/gnu_arcem7d/middleware/u8glib/csrc/u8g_pb8v1.o
 .bss           0x100ed4fc        0x0 obj_emsk_22/gnu_arcem7d/middleware/u8glib/csrc/u8g_rect.o
 .bss           0x100ed4fc        0x0 obj_emsk_22/gnu_arcem7d/middleware/u8glib/csrc/u8g_ll_api.o
 .bss           0x100ed4fc        0x0 obj_emsk_22/gnu_arcem7d/middleware/u8glib/csrc/u8g_delay.o
 .bss           0x100ed4fc        0x0 obj_emsk_22/gnu_arcem7d/middleware/u8glib/csrc/u8g_clip.o
 .bss           0x100ed4fc        0x0 obj_emsk_22/gnu_arcem7d/middleware/u8glib/csrc/u8g_line.o
 .bss           0x100ed4fc        0x0 obj_emsk_22/gnu_arcem7d/middleware/u8glib/csrc/u8g_state.o
 .bss           0x100ed4fc        0x0 obj_emsk_22/gnu_arcem7d/middleware/u8glib/csrc/u8g_circle.o
 .bss           0x100ed4fc        0x0 obj_emsk_22/gnu_arcem7d/middleware/u8glib/fntsrc/u8g_font_gdr30.o
 .bss           0x100ed4fc        0x0 obj_emsk_22/gnu_arcem7d/middleware/u8glib/fntsrc/u8g_font_gdr20.o
 .bss           0x100ed4fc        0x0 obj_emsk_22/gnu_arcem7d/middleware/u8glib/fntsrc/u8g_font_6x10.o
 .bss           0x100ed4fc        0x0 obj_emsk_22/gnu_arcem7d/os/freertos/portable/synopsys/arc/port.o
 .bss           0x100ed4fc   0x100014 obj_emsk_22/gnu_arcem7d/os/freertos/portable/heap_sel.o
 .bss           0x101ed510        0x0 obj_emsk_22/gnu_arcem7d/os/freertos/portable/synopsys/arc/arc_support.o
 .bss           0x101ed510        0x0 obj_emsk_22/gnu_arcem7d/library/clib/fatfs_dirent.o
 .bss           0x101ed510        0x4 obj_emsk_22/gnu_arcem7d/board/emsk/drivers/ip/designware/iic/dw_iic_obj.o
 .bss           0x101ed514        0x8 obj_emsk_22/gnu_arcem7d/board/emsk/drivers/ip/designware/spi/dw_spi_obj.o
 .bss           0x101ed51c        0x0 obj_emsk_22/gnu_arcem7d/device/ip/designware/iic/dw_iic.o
 .bss           0x101ed51c        0x0 obj_emsk_22/gnu_arcem7d/device/ip/designware/spi/dw_spi.o
 .bss           0x101ed51c        0x0 obj_emsk_22/gnu_arcem7d/board/emsk/drivers/sdcard/emsk_sdcard_spi.o
 .bss           0x101ed51c        0x0 obj_emsk_22/gnu_arcem7d/middleware/fatfs/src/diskdrv/ff_sdcard_spi.o
 .bss           0x101ed51c        0x0 obj_emsk_22/gnu_arcem7d/middleware/lwip/src/core/tcp_out.o
 .bss           0x101ed51c        0x4 obj_emsk_22/gnu_arcem7d/middleware/lwip/src/core/raw.o
 .bss           0x101ed520        0x0 obj_emsk_22/gnu_arcem7d/middleware/lwip/src/core/ip.o
 .bss           0x101ed520        0x0 obj_emsk_22/gnu_arcem7d/middleware/lwip/src/core/init.o
 .bss           0x101ed520       0xd0 obj_emsk_22/gnu_arcem7d/middleware/lwip/src/api/sockets.o
 .bss           0x101ed5f0        0x0 obj_emsk_22/gnu_arcem7d/middleware/lwip/src/api/err.o
 .bss           0x101ed5f0        0x0 obj_emsk_22/gnu_arcem7d/middleware/lwip/src/api/netbuf.o
 .bss           0x101ed5f0        0x0 obj_emsk_22/gnu_arcem7d/middleware/lwip/src/api/api_lib.o
 .bss           0x101ed5f0      0x128 obj_emsk_22/gnu_arcem7d/middleware/lwip/src/api/netdb.o
 .bss           0x101ed718        0x0 obj_emsk_22/gnu_arcem7d/middleware/mbedtls/library/bignum.o
 .bss           0x101ed718        0x0 obj_emsk_22/gnu_arcem7d/middleware/mbedtls/library/ssl_cli.o
 .bss           0x101ed718        0x0 obj_emsk_22/gnu_arcem7d/middleware/mbedtls/library/pk_wrap.o
 .bss           0x101ed718        0x0 obj_emsk_22/gnu_arcem7d/middleware/mbedtls/library/base64.o
 .bss           0x101ed718        0x0 obj_emsk_22/gnu_arcem7d/middleware/mbedtls/library/md.o
 .bss           0x101ed718        0x0 obj_emsk_22/gnu_arcem7d/middleware/mbedtls/library/ccm.o
 .bss           0x101ed718        0x0 obj_emsk_22/gnu_arcem7d/middleware/mbedtls/library/ecp_curves.o
 .bss           0x101ed718        0x0 obj_emsk_22/gnu_arcem7d/middleware/mbedtls/library/arc4.o
 .bss           0x101ed718       0x40 obj_emsk_22/gnu_arcem7d/middleware/mbedtls/library/ecp.o
 .bss           0x101ed758        0x0 obj_emsk_22/gnu_arcem7d/middleware/mbedtls/library/ecdh.o
 .bss           0x101ed758        0x0 obj_emsk_22/gnu_arcem7d/middleware/mbedtls/library/cipher_wrap.o
 .bss           0x101ed758        0x0 obj_emsk_22/gnu_arcem7d/middleware/mbedtls/library/des.o
 .bss           0x101ed758        0x0 obj_emsk_22/gnu_arcem7d/middleware/mbedtls/library/md5.o
 .bss           0x101ed758        0x0 obj_emsk_22/gnu_arcem7d/middleware/mbedtls/library/pkcs5.o
 .bss           0x101ed758        0x0 obj_emsk_22/gnu_arcem7d/middleware/mbedtls/library/gcm.o
 .bss           0x101ed758        0x0 obj_emsk_22/gnu_arcem7d/middleware/mbedtls/library/sha256.o
 .bss           0x101ed758        0x0 obj_emsk_22/gnu_arcem7d/middleware/mbedtls/library/ssl_srv.o
 .bss           0x101ed758        0x0 obj_emsk_22/gnu_arcem7d/middleware/mbedtls/library/ecdsa.o
 .bss           0x101ed758        0x0 obj_emsk_22/gnu_arcem7d/middleware/mbedtls/library/md_wrap.o
 .bss           0x101ed758        0x4 obj_emsk_22/gnu_arcem7d/middleware/mbedtls/library/hmac_drbg.o
 .bss           0x101ed75c        0xc obj_emsk_22/gnu_arcem7d/middleware/u8glib/csrc/u8g_com_embarc_ssd1306_i2c.o
 .bss           0x101ed768        0x0 obj_emsk_22/gnu_arcem7d/middleware/u8glib/csrc/u8g_com_api.o
 .bss           0x101ed768        0x0 obj_emsk_22/gnu_arcem7d/middleware/u8glib/csrc/u8g_page.o
 .bss           0x101ed768        0x0 obj_emsk_22/gnu_arcem7d/middleware/lwip/src/api/api_msg.o
 .bss           0x101ed768        0x0 obj_emsk_22/gnu_arcem7d/middleware/mbedtls/library/ripemd160.o
 .bss           0x101ed768        0x0 obj_emsk_22/gnu_arcem7d/middleware/mbedtls/library/camellia.o
 .bss           0x101ed768        0x0 obj_emsk_22/gnu_arcem7d/middleware/mbedtls/library/asn1write.o
 .bss           0x101ed768        0x0 obj_emsk_22/gnu_arcem7d/middleware/mbedtls/library/blowfish.o
 .bss           0x101ed768        0x0 d:/arc_gnu/bin/../lib/gcc/arc-elf32/7.1.1/../../../../arc-elf32/lib/em4_dmips\libc.a(lib_a-atoi.o)
 .bss           0x101ed768        0x0 d:/arc_gnu/bin/../lib/gcc/arc-elf32/7.1.1/../../../../arc-elf32/lib/em4_dmips\libc.a(lib_a-calloc.o)
 .bss           0x101ed768        0x0 d:/arc_gnu/bin/../lib/gcc/arc-elf32/7.1.1/../../../../arc-elf32/lib/em4_dmips\libc.a(lib_a-callocr.o)
 .bss           0x101ed768        0x0 d:/arc_gnu/bin/../lib/gcc/arc-elf32/7.1.1/../../../../arc-elf32/lib/em4_dmips\libc.a(lib_a-fclose.o)
 .bss           0x101ed768        0x0 d:/arc_gnu/bin/../lib/gcc/arc-elf32/7.1.1/../../../../arc-elf32/lib/em4_dmips\libc.a(lib_a-fflush.o)
 .bss           0x101ed768        0x0 d:/arc_gnu/bin/../lib/gcc/arc-elf32/7.1.1/../../../../arc-elf32/lib/em4_dmips\libc.a(lib_a-fgets.o)
 .bss           0x101ed768        0x0 d:/arc_gnu/bin/../lib/gcc/arc-elf32/7.1.1/../../../../arc-elf32/lib/em4_dmips\libc.a(lib_a-findfp.o)
 .bss           0x101ed768        0x0 d:/arc_gnu/bin/../lib/gcc/arc-elf32/7.1.1/../../../../arc-elf32/lib/em4_dmips\libc.a(lib_a-fopen.o)
 .bss           0x101ed768        0x0 d:/arc_gnu/bin/../lib/gcc/arc-elf32/7.1.1/../../../../arc-elf32/lib/em4_dmips\libc.a(lib_a-fprintf.o)
 .bss           0x101ed768        0x0 d:/arc_gnu/bin/../lib/gcc/arc-elf32/7.1.1/../../../../arc-elf32/lib/em4_dmips\libc.a(lib_a-fread.o)
 .bss           0x101ed768        0x0 d:/arc_gnu/bin/../lib/gcc/arc-elf32/7.1.1/../../../../arc-elf32/lib/em4_dmips\libc.a(lib_a-freer.o)
 .bss           0x101ed768        0x0 d:/arc_gnu/bin/../lib/gcc/arc-elf32/7.1.1/../../../../arc-elf32/lib/em4_dmips\libc.a(lib_a-fseek.o)
 .bss           0x101ed768        0x0 d:/arc_gnu/bin/../lib/gcc/arc-elf32/7.1.1/../../../../arc-elf32/lib/em4_dmips\libc.a(lib_a-fseeko.o)
 .bss           0x101ed768        0x0 d:/arc_gnu/bin/../lib/gcc/arc-elf32/7.1.1/../../../../arc-elf32/lib/em4_dmips\libc.a(lib_a-fstatr.o)
 .bss           0x101ed768        0x0 d:/arc_gnu/bin/../lib/gcc/arc-elf32/7.1.1/../../../../arc-elf32/lib/em4_dmips\libc.a(lib_a-ftell.o)
 .bss           0x101ed768        0x0 d:/arc_gnu/bin/../lib/gcc/arc-elf32/7.1.1/../../../../arc-elf32/lib/em4_dmips\libc.a(lib_a-ftello.o)
 .bss           0x101ed768        0x0 d:/arc_gnu/bin/../lib/gcc/arc-elf32/7.1.1/../../../../arc-elf32/lib/em4_dmips\libc.a(lib_a-fwalk.o)
 .bss           0x101ed768        0x0 d:/arc_gnu/bin/../lib/gcc/arc-elf32/7.1.1/../../../../arc-elf32/lib/em4_dmips\libc.a(lib_a-fwrite.o)
 .bss           0x101ed768        0x0 d:/arc_gnu/bin/../lib/gcc/arc-elf32/7.1.1/../../../../arc-elf32/lib/em4_dmips\libc.a(lib_a-gmtime.o)
 .bss           0x101ed768        0x0 d:/arc_gnu/bin/../lib/gcc/arc-elf32/7.1.1/../../../../arc-elf32/lib/em4_dmips\libc.a(lib_a-gmtime_r.o)
 .bss           0x101ed768        0x0 d:/arc_gnu/bin/../lib/gcc/arc-elf32/7.1.1/../../../../arc-elf32/lib/em4_dmips\libc.a(lib_a-impure.o)
 .bss           0x101ed768        0x0 d:/arc_gnu/bin/../lib/gcc/arc-elf32/7.1.1/../../../../arc-elf32/lib/em4_dmips\libc.a(lib_a-lcltime.o)
 .bss           0x101ed768        0x0 d:/arc_gnu/bin/../lib/gcc/arc-elf32/7.1.1/../../../../arc-elf32/lib/em4_dmips\libc.a(lib_a-lcltime_r.o)
 .bss           0x101ed768        0x0 d:/arc_gnu/bin/../lib/gcc/arc-elf32/7.1.1/../../../../arc-elf32/lib/em4_dmips\libc.a(lib_a-makebuf.o)
 .bss           0x101ed768        0x0 d:/arc_gnu/bin/../lib/gcc/arc-elf32/7.1.1/../../../../arc-elf32/lib/em4_dmips\libc.a(lib_a-malloc.o)
 .bss           0x101ed768       0x28 d:/arc_gnu/bin/../lib/gcc/arc-elf32/7.1.1/../../../../arc-elf32/lib/em4_dmips\libc.a(lib_a-mallocr.o)
                0x101ed768                __malloc_current_mallinfo
 .bss           0x101ed790        0x0 d:/arc_gnu/bin/../lib/gcc/arc-elf32/7.1.1/../../../../arc-elf32/lib/em4_dmips\libc.a(lib_a-memchr.o)
 .bss           0x101ed790        0x0 d:/arc_gnu/bin/../lib/gcc/arc-elf32/7.1.1/../../../../arc-elf32/lib/em4_dmips\libc.a(lib_a-memcmp-bs-norm.o)
 .bss           0x101ed790        0x0 d:/arc_gnu/bin/../lib/gcc/arc-elf32/7.1.1/../../../../arc-elf32/lib/em4_dmips\libc.a(lib_a-memcpy-bs.o)
 .bss           0x101ed790        0x0 d:/arc_gnu/bin/../lib/gcc/arc-elf32/7.1.1/../../../../arc-elf32/lib/em4_dmips\libc.a(lib_a-memmove.o)
 .bss           0x101ed790        0x0 d:/arc_gnu/bin/../lib/gcc/arc-elf32/7.1.1/../../../../arc-elf32/lib/em4_dmips\libc.a(lib_a-memset-bs.o)
 .bss           0x101ed790        0x0 d:/arc_gnu/bin/../lib/gcc/arc-elf32/7.1.1/../../../../arc-elf32/lib/em4_dmips\libc.a(lib_a-mlock.o)
 .bss           0x101ed790        0x0 d:/arc_gnu/bin/../lib/gcc/arc-elf32/7.1.1/../../../../arc-elf32/lib/em4_dmips\libc.a(lib_a-month_lengths.o)
 .bss           0x101ed790        0x0 d:/arc_gnu/bin/../lib/gcc/arc-elf32/7.1.1/../../../../arc-elf32/lib/em4_dmips\libc.a(lib_a-openr.o)
 .bss           0x101ed790        0x0 d:/arc_gnu/bin/../lib/gcc/arc-elf32/7.1.1/../../../../arc-elf32/lib/em4_dmips\libc.a(lib_a-printf.o)
 .bss           0x101ed790        0x0 d:/arc_gnu/bin/../lib/gcc/arc-elf32/7.1.1/../../../../arc-elf32/lib/em4_dmips\libc.a(lib_a-putchar.o)
 .bss           0x101ed790        0x0 d:/arc_gnu/bin/../lib/gcc/arc-elf32/7.1.1/../../../../arc-elf32/lib/em4_dmips\libc.a(lib_a-puts.o)
 .bss           0x101ed790        0x0 d:/arc_gnu/bin/../lib/gcc/arc-elf32/7.1.1/../../../../arc-elf32/lib/em4_dmips\libc.a(lib_a-rand.o)
 .bss           0x101ed790        0x0 d:/arc_gnu/bin/../lib/gcc/arc-elf32/7.1.1/../../../../arc-elf32/lib/em4_dmips\libc.a(lib_a-reent.o)
 .bss           0x101ed790        0x0 d:/arc_gnu/bin/../lib/gcc/arc-elf32/7.1.1/../../../../arc-elf32/lib/em4_dmips\libc.a(lib_a-refill.o)
 .bss           0x101ed790        0x0 d:/arc_gnu/bin/../lib/gcc/arc-elf32/7.1.1/../../../../arc-elf32/lib/em4_dmips\libc.a(lib_a-sbrkr.o)
 .bss           0x101ed790        0x0 d:/arc_gnu/bin/../lib/gcc/arc-elf32/7.1.1/../../../../arc-elf32/lib/em4_dmips\libc.a(lib_a-snprintf.o)
 .bss           0x101ed790        0x0 d:/arc_gnu/bin/../lib/gcc/arc-elf32/7.1.1/../../../../arc-elf32/lib/em4_dmips\libc.a(lib_a-sprintf.o)
 .bss           0x101ed790        0x0 d:/arc_gnu/bin/../lib/gcc/arc-elf32/7.1.1/../../../../arc-elf32/lib/em4_dmips\libc.a(lib_a-stdio.o)
 .bss           0x101ed790        0x0 d:/arc_gnu/bin/../lib/gcc/arc-elf32/7.1.1/../../../../arc-elf32/lib/em4_dmips\libc.a(lib_a-strcat.o)
 .bss           0x101ed790        0x0 d:/arc_gnu/bin/../lib/gcc/arc-elf32/7.1.1/../../../../arc-elf32/lib/em4_dmips\libc.a(lib_a-strcmp.o)
 .bss           0x101ed790        0x0 d:/arc_gnu/bin/../lib/gcc/arc-elf32/7.1.1/../../../../arc-elf32/lib/em4_dmips\libc.a(lib_a-strcpy-bs.o)
 .bss           0x101ed790        0x0 d:/arc_gnu/bin/../lib/gcc/arc-elf32/7.1.1/../../../../arc-elf32/lib/em4_dmips\libc.a(lib_a-strlen-bs-norm.o)
 .bss           0x101ed790        0x0 d:/arc_gnu/bin/../lib/gcc/arc-elf32/7.1.1/../../../../arc-elf32/lib/em4_dmips\libc.a(lib_a-strncmp.o)
 .bss           0x101ed790        0x0 d:/arc_gnu/bin/../lib/gcc/arc-elf32/7.1.1/../../../../arc-elf32/lib/em4_dmips\libc.a(lib_a-strncpy-bs.o)
 .bss           0x101ed790        0x0 d:/arc_gnu/bin/../lib/gcc/arc-elf32/7.1.1/../../../../arc-elf32/lib/em4_dmips\libc.a(lib_a-strstr.o)
 .bss           0x101ed790        0x0 d:/arc_gnu/bin/../lib/gcc/arc-elf32/7.1.1/../../../../arc-elf32/lib/em4_dmips\libc.a(lib_a-strtol.o)
 .bss           0x101ed790        0x0 d:/arc_gnu/bin/../lib/gcc/arc-elf32/7.1.1/../../../../arc-elf32/lib/em4_dmips\libc.a(lib_a-svfprintf.o)
 .bss           0x101ed790        0x0 d:/arc_gnu/bin/../lib/gcc/arc-elf32/7.1.1/../../../../arc-elf32/lib/em4_dmips\libc.a(lib_a-sysstat.o)
 .bss           0x101ed790        0x0 d:/arc_gnu/bin/../lib/gcc/arc-elf32/7.1.1/../../../../arc-elf32/lib/em4_dmips\libc.a(lib_a-time.o)
 .bss           0x101ed790        0x0 d:/arc_gnu/bin/../lib/gcc/arc-elf32/7.1.1/../../../../arc-elf32/lib/em4_dmips\libc.a(lib_a-tzcalc_limits.o)
 .bss           0x101ed790        0x0 d:/arc_gnu/bin/../lib/gcc/arc-elf32/7.1.1/../../../../arc-elf32/lib/em4_dmips\libc.a(lib_a-tzlock.o)
 .bss           0x101ed790        0x0 d:/arc_gnu/bin/../lib/gcc/arc-elf32/7.1.1/../../../../arc-elf32/lib/em4_dmips\libc.a(lib_a-tzset.o)
 .bss           0x101ed790       0x1c d:/arc_gnu/bin/../lib/gcc/arc-elf32/7.1.1/../../../../arc-elf32/lib/em4_dmips\libc.a(lib_a-tzset_r.o)
 .bss           0x101ed7ac        0x0 d:/arc_gnu/bin/../lib/gcc/arc-elf32/7.1.1/../../../../arc-elf32/lib/em4_dmips\libc.a(lib_a-tzvars.o)
 .bss           0x101ed7ac        0x0 d:/arc_gnu/bin/../lib/gcc/arc-elf32/7.1.1/../../../../arc-elf32/lib/em4_dmips\libc.a(lib_a-vfprintf.o)
 .bss           0x101ed7ac        0x0 d:/arc_gnu/bin/../lib/gcc/arc-elf32/7.1.1/../../../../arc-elf32/lib/em4_dmips\libc.a(lib_a-vsnprintf.o)
 .bss           0x101ed7ac        0x0 d:/arc_gnu/bin/../lib/gcc/arc-elf32/7.1.1/../../../../arc-elf32/lib/em4_dmips\libc.a(lib_a-writer.o)
 .bss           0x101ed7ac        0x0 d:/arc_gnu/bin/../lib/gcc/arc-elf32/7.1.1/../../../../arc-elf32/lib/em4_dmips\libc.a(lib_a-wsetup.o)
 .bss           0x101ed7ac        0x0 d:/arc_gnu/bin/../lib/gcc/arc-elf32/7.1.1/../../../../arc-elf32/lib/em4_dmips\libc.a(lib_a-closer.o)
 .bss           0x101ed7ac        0x0 d:/arc_gnu/bin/../lib/gcc/arc-elf32/7.1.1/../../../../arc-elf32/lib/em4_dmips\libc.a(lib_a-dtoa.o)
 .bss           0x101ed7ac        0x0 d:/arc_gnu/bin/../lib/gcc/arc-elf32/7.1.1/../../../../arc-elf32/lib/em4_dmips\libc.a(lib_a-flags.o)
 .bss           0x101ed7ac        0x0 d:/arc_gnu/bin/../lib/gcc/arc-elf32/7.1.1/../../../../arc-elf32/lib/em4_dmips\libc.a(lib_a-fvwrite.o)
 .bss           0x101ed7ac        0x0 d:/arc_gnu/bin/../lib/gcc/arc-elf32/7.1.1/../../../../arc-elf32/lib/em4_dmips\libc.a(lib_a-getenv_r.o)
 .bss           0x101ed7ac        0x0 d:/arc_gnu/bin/../lib/gcc/arc-elf32/7.1.1/../../../../arc-elf32/lib/em4_dmips\libc.a(lib_a-gettimeofdayr.o)
 .bss           0x101ed7ac        0x0 d:/arc_gnu/bin/../lib/gcc/arc-elf32/7.1.1/../../../../arc-elf32/lib/em4_dmips\libc.a(lib_a-gettzinfo.o)
 .bss           0x101ed7ac        0x0 d:/arc_gnu/bin/../lib/gcc/arc-elf32/7.1.1/../../../../arc-elf32/lib/em4_dmips\libc.a(lib_a-isattyr.o)
 .bss           0x101ed7ac        0x0 d:/arc_gnu/bin/../lib/gcc/arc-elf32/7.1.1/../../../../arc-elf32/lib/em4_dmips\libc.a(lib_a-locale.o)
 .bss           0x101ed7ac        0x0 d:/arc_gnu/bin/../lib/gcc/arc-elf32/7.1.1/../../../../arc-elf32/lib/em4_dmips\libc.a(lib_a-localeconv.o)
 .bss           0x101ed7ac        0x0 d:/arc_gnu/bin/../lib/gcc/arc-elf32/7.1.1/../../../../arc-elf32/lib/em4_dmips\libc.a(lib_a-lseekr.o)
 .bss           0x101ed7ac        0x0 d:/arc_gnu/bin/../lib/gcc/arc-elf32/7.1.1/../../../../arc-elf32/lib/em4_dmips\libc.a(lib_a-mbtowc_r.o)
 .bss           0x101ed7ac        0x0 d:/arc_gnu/bin/../lib/gcc/arc-elf32/7.1.1/../../../../arc-elf32/lib/em4_dmips\libc.a(lib_a-mprec.o)
 .bss           0x101ed7ac        0x0 d:/arc_gnu/bin/../lib/gcc/arc-elf32/7.1.1/../../../../arc-elf32/lib/em4_dmips\libc.a(lib_a-putc.o)
 .bss           0x101ed7ac        0x0 d:/arc_gnu/bin/../lib/gcc/arc-elf32/7.1.1/../../../../arc-elf32/lib/em4_dmips\libc.a(lib_a-readr.o)
 .bss           0x101ed7ac        0x0 d:/arc_gnu/bin/../lib/gcc/arc-elf32/7.1.1/../../../../arc-elf32/lib/em4_dmips\libc.a(lib_a-reallocr.o)
 .bss           0x101ed7ac        0x0 d:/arc_gnu/bin/../lib/gcc/arc-elf32/7.1.1/../../../../arc-elf32/lib/em4_dmips\libc.a(lib_a-siscanf.o)
 .bss           0x101ed7ac        0x0 d:/arc_gnu/bin/../lib/gcc/arc-elf32/7.1.1/../../../../arc-elf32/lib/em4_dmips\libc.a(lib_a-statr.o)
 .bss           0x101ed7ac        0x0 d:/arc_gnu/bin/../lib/gcc/arc-elf32/7.1.1/../../../../arc-elf32/lib/em4_dmips\libc.a(lib_a-strchr-bs-norm.o)
 .bss           0x101ed7ac        0x0 d:/arc_gnu/bin/../lib/gcc/arc-elf32/7.1.1/../../../../arc-elf32/lib/em4_dmips\libc.a(lib_a-strtoul.o)
 .bss           0x101ed7ac        0x0 d:/arc_gnu/bin/../lib/gcc/arc-elf32/7.1.1/../../../../arc-elf32/lib/em4_dmips\libc.a(lib_a-svfiprintf.o)
 .bss           0x101ed7ac        0x0 d:/arc_gnu/bin/../lib/gcc/arc-elf32/7.1.1/../../../../arc-elf32/lib/em4_dmips\libc.a(lib_a-svfiscanf.o)
 .bss           0x101ed7ac        0x0 d:/arc_gnu/bin/../lib/gcc/arc-elf32/7.1.1/../../../../arc-elf32/lib/em4_dmips\libc.a(lib_a-ungetc.o)
 .bss           0x101ed7ac        0x0 d:/arc_gnu/bin/../lib/gcc/arc-elf32/7.1.1/../../../../arc-elf32/lib/em4_dmips\libc.a(lib_a-vfiprintf.o)
 .bss           0x101ed7ac        0x0 d:/arc_gnu/bin/../lib/gcc/arc-elf32/7.1.1/../../../../arc-elf32/lib/em4_dmips\libc.a(lib_a-wbuf.o)
 .bss           0x101ed7ac        0x0 d:/arc_gnu/bin/../lib/gcc/arc-elf32/7.1.1/../../../../arc-elf32/lib/em4_dmips\libc.a(lib_a-wctomb_r.o)
 .bss           0x101ed7ac        0x0 d:/arc_gnu/bin/../lib/gcc/arc-elf32/7.1.1/../../../../arc-elf32/lib/em4_dmips\libc.a(lib_a-ctype_.o)
 .bss           0x101ed7ac        0x4 d:/arc_gnu/bin/../lib/gcc/arc-elf32/7.1.1/../../../../arc-elf32/lib/em4_dmips\libc.a(lib_a-environ.o)
 .bss           0x101ed7b0        0x0 d:/arc_gnu/bin/../lib/gcc/arc-elf32/7.1.1/../../../../arc-elf32/lib/em4_dmips\libc.a(lib_a-envlock.o)
 .bss           0x101ed7b0        0x0 d:/arc_gnu/bin/../lib/gcc/arc-elf32/7.1.1/../../../../arc-elf32/lib/em4_dmips\libc.a(lib_a-fputwc.o)
 .bss           0x101ed7b0        0x0 d:/arc_gnu/bin/../lib/gcc/arc-elf32/7.1.1/../../../../arc-elf32/lib/em4_dmips\libc.a(lib_a-iswspace.o)
 .bss           0x101ed7b0        0x0 d:/arc_gnu/bin/../lib/gcc/arc-elf32/7.1.1/../../../../arc-elf32/lib/em4_dmips\libc.a(lib_a-mbrtowc.o)
 .bss           0x101ed7b0        0x0 d:/arc_gnu/bin/../lib/gcc/arc-elf32/7.1.1/../../../../arc-elf32/lib/em4_dmips\libc.a(lib_a-sccl.o)
 .bss           0x101ed7b0        0x0 d:/arc_gnu/bin/../lib/gcc/arc-elf32/7.1.1/../../../../arc-elf32/lib/em4_dmips\libc.a(lib_a-strtoll.o)
 .bss           0x101ed7b0        0x0 d:/arc_gnu/bin/../lib/gcc/arc-elf32/7.1.1/../../../../arc-elf32/lib/em4_dmips\libc.a(lib_a-strtoull.o)
 .bss           0x101ed7b0        0x0 d:/arc_gnu/bin/../lib/gcc/arc-elf32/7.1.1/../../../../arc-elf32/lib/em4_dmips\libc.a(lib_a-wcrtomb.o)
 .bss           0x101ed7b0        0x0 d:/arc_gnu/bin/../lib/gcc/arc-elf32/7.1.1/em4_dmips\libgcc.a(_udivdi3.o)
 .bss           0x101ed7b0        0x0 d:/arc_gnu/bin/../lib/gcc/arc-elf32/7.1.1/em4_dmips\libgcc.a(_umoddi3.o)
 .bss           0x101ed7b0        0x0 d:/arc_gnu/bin/../lib/gcc/arc-elf32/7.1.1/em4_dmips\libgcc.a(fp-bit.o)
 .bss           0x101ed7b0        0x0 d:/arc_gnu/bin/../lib/gcc/arc-elf32/7.1.1/em4_dmips\libgcc.a(dp-bit.o)
 .bss           0x101ed7b0        0x4 obj_emsk_22/gnu_arcem7d/library/clib/embarc_sbrk.o
 .bss           0x101ed7b4       0xb0 obj_emsk_22/gnu_arcem7d/library/clib/embarc_syscalls.o
                0x101ed7b4                stdio_uart_inited
 .bss           0x101ed864        0x0 obj_emsk_22/gnu_arcem7d/library/clib/embarc_target.o
 .bss           0x101ed864        0x0 d:/arc_gnu/bin/../lib/gcc/arc-elf32/7.1.1/../../../../arc-elf32/lib/em4_dmips\libc.a(lib_a-mktime.o)
 .bss           0x101ed864        0x0 d:/arc_gnu/bin/../lib/gcc/arc-elf32/7.1.1/../../../../arc-elf32/lib/em4_dmips\libc.a(lib_a-sscanf.o)
 .bss           0x101ed864        0x0 d:/arc_gnu/bin/../lib/gcc/arc-elf32/7.1.1/../../../../arc-elf32/lib/em4_dmips\libc.a(lib_a-svfscanf.o)
 .bss           0x101ed864        0x0 d:/arc_gnu/bin/../lib/gcc/arc-elf32/7.1.1/../../../../arc-elf32/lib/em4_dmips\libc.a(lib_a-div.o)
 .bss           0x101ed864        0x0 d:/arc_gnu/bin/../lib/gcc/arc-elf32/7.1.1/../../../../arc-elf32/lib/em4_dmips\libc.a(lib_a-sf_nan.o)
 .bss           0x101ed864        0x0 d:/arc_gnu/bin/../lib/gcc/arc-elf32/7.1.1/../../../../arc-elf32/lib/em4_dmips\libc.a(lib_a-strtod.o)
 .bss           0x101ed864        0x0 d:/arc_gnu/bin/../lib/gcc/arc-elf32/7.1.1/../../../../arc-elf32/lib/em4_dmips\libc.a(lib_a-gdtoa-gethex.o)
 .bss           0x101ed864        0x0 d:/arc_gnu/bin/../lib/gcc/arc-elf32/7.1.1/../../../../arc-elf32/lib/em4_dmips\libc.a(lib_a-gdtoa-hexnan.o)
 *(COMMON)
 COMMON         0x101ed864       0x20 obj_emsk_22/gnu_arcem7d/board/board.o
                0x101ed864                xMainQueue
                0x101ed868                xCommunicationQueue
                0x101ed86c                xOledQueue
                0x101ed870                xVMQueue
                0x101ed874                xNumPadQueue
                0x101ed878                xTempQueue
                0x101ed87c                spi_mutex
                0x101ed880                xDCmotorQueue
 COMMON         0x101ed884        0x8 obj_emsk_22/gnu_arcem7d/middleware/common/xprintf/xprintf.o
                0x101ed884                xfunc_in
                0x101ed888                xfunc_out
 COMMON         0x101ed88c       0x3c obj_emsk_22/gnu_arcem7d/middleware/vending-machine/source/oled_task.o
                0x101ed88c                u8g
 COMMON         0x101ed8c8       0xa8 obj_emsk_22/gnu_arcem7d/middleware/vending-machine/source/communication_task.o
                0x101ed8c8                opt
 COMMON         0x101ed970        0x4 obj_emsk_22/gnu_arcem7d/arc/arc_exception.o
                0x101ed970                exc_nest_count
 COMMON         0x101ed974      0x114 obj_emsk_22/gnu_arcem7d/board/emsk/drivers/ip/designware/uart/dw_uart_obj.o
                0x101ed974                dw_uart_0
                0x101ed9d0                dw_uart_2
                0x101eda2c                dw_uart_1
 COMMON         0x101eda88        0x1 obj_emsk_22/gnu_arcem7d/middleware/lwip/src/core/pbuf.o
                0x101eda88                pbuf_free_ooseq_pending
 *fill*         0x101eda89        0x3 
 COMMON         0x101eda8c     0x2013 obj_emsk_22/gnu_arcem7d/middleware/lwip/src/core/mem.o
                0x101eda8c                ram_heap
 *fill*         0x101efa9f        0x1 
 COMMON         0x101efaa0        0x4 obj_emsk_22/gnu_arcem7d/middleware/lwip/src/core/udp.o
                0x101efaa0                udp_pcbs
 COMMON         0x101efaa4       0x18 obj_emsk_22/gnu_arcem7d/middleware/lwip/src/core/tcp.o
                0x101efaa4                tcp_active_pcbs_changed
                0x101efaa8                tcp_active_pcbs
                0x101efaac                tcp_ticks
                0x101efab0                tcp_listen_pcbs
                0x101efab4                tcp_bound_pcbs
                0x101efab8                tcp_tw_pcbs
 COMMON         0x101efabc        0x8 obj_emsk_22/gnu_arcem7d/middleware/lwip/src/core/netif.o
                0x101efabc                netif_list
                0x101efac0                netif_default
 COMMON         0x101efac4        0x4 obj_emsk_22/gnu_arcem7d/middleware/lwip/src/core/tcp_in.o
                0x101efac4                tcp_input_pcb
 COMMON         0x101efac8    0x12e23 obj_emsk_22/gnu_arcem7d/middleware/lwip/src/core/memp.o
                0x101efac8                memp_memory_NETDB_base
                0x101efc00                memp_memory_NETBUF_base
                0x101efc24                memp_memory_TCPIP_MSG_INPKT_base
                0x101efd28                memp_memory_RAW_PCB_base
                0x101efd9c                memp_memory_TCP_SEG_base
                0x101efee0                memp_memory_PBUF_POOL_base
                0x10201be4                memp_memory_FRAG_PBUF_base
                0x10201d50                memp_memory_TCPIP_MSG_API_base
                0x10201e54                memp_memory_PBUF_base
                0x10202038                memp_memory_TCP_PCB_LISTEN_base
                0x1020213c                memp_memory_REASSDATA_base
                0x102021e0                memp_memory_UDP_PCB_base
                0x10202264                memp_memory_NETCONN_base
                0x10202498                memp_memory_TCP_PCB_base
                0x102027a8                memp_memory_SYS_TIMEOUT_base
 *fill*         0x102028eb        0x1 
 COMMON         0x102028ec       0x34 obj_emsk_22/gnu_arcem7d/middleware/lwip/src/core/ipv4/dhcp.o
                0x102028ec                dhcp_rx_options_given
                0x102028f8                dhcp_rx_options_val
 COMMON         0x10202920        0x4 obj_emsk_22/gnu_arcem7d/middleware/lwip/src/api/tcpip.o
                0x10202920                lock_tcpip_core
 COMMON         0x10202924        0x4 obj_emsk_22/gnu_arcem7d/os/freertos/portable/synopsys/arc/port.o
                0x10202924                context_switch_reqflg
 COMMON         0x10202928      0x190 obj_emsk_22/gnu_arcem7d/board/emsk/drivers/ip/designware/iic/dw_iic_obj.o
                0x10202928                dw_iic_0_ctrl
                0x10202988                dw_iic_1
                0x102029f0                dw_iic_0
                0x10202a58                dw_iic_1_ctrl
 COMMON         0x10202ab8      0x158 obj_emsk_22/gnu_arcem7d/board/emsk/drivers/ip/designware/spi/dw_spi_obj.o
                0x10202ab8                dw_spi_0
                0x10202b28                dw_spi_1
                0x10202b98                dw_spi_0_ctrl
                0x10202bd4                dw_spi_1_ctrl
 COMMON         0x10202c10       0x18 obj_emsk_22/gnu_arcem7d/middleware/lwip/src/core/ip.o
                0x10202c10                ip_data
 COMMON         0x10202c28        0x4 obj_emsk_22/gnu_arcem7d/middleware/lwip/src/api/netdb.o
                0x10202c28                h_errno
 COMMON         0x10202c2c       0xc0 obj_emsk_22/gnu_arcem7d/middleware/mbedtls/library/cipher_wrap.o
                0x10202c2c                mbedtls_cipher_supported
 COMMON         0x10202cec        0x1 obj_emsk_22/gnu_arcem7d/middleware/lwip/src/api/api_msg.o
                0x10202cec                netconn_aborted
 *fill*         0x10202ced        0x3 
 COMMON         0x10202cf0        0x4 obj_emsk_22/gnu_arcem7d/library/clib/embarc_syscalls.o
                0x10202cf0                stdio_uart_obj
                0x10202cf4                _e_bss = .

.stack          0x10202cf4   0x100000
                0x10202cf4                . = ALIGN (0x4)
                0x10202cf4                _f_stack = .
                0x10302cf4                . = (. + 0x100000)
 *fill*         0x10202cf4   0x100000 
                0x10302cf4                _e_stack = .

.heap           0x10302cf4   0x100000
                0x10302cf4                . = ALIGN (0x4)
                0x10302cf4                __start_heap = .
                0x10302cf4                _f_heap = .
                0x10402cf4                . = (. + 0x100000)
 *fill*         0x10302cf4   0x100000 
                0x10402cf4                _e_heap = .
                0x10402cf4                __end_heap = .
                0x10000800                _load_addr_text = LOADADDR (.text)
                0x100b4544                _load_addr_rodata = LOADADDR (.rodata)
                0x100e82d0                _load_addr_data = LOADADDR (.data)
LOAD obj_emsk_22/gnu_arcem7d/application/./Source/main.o
LOAD obj_emsk_22/gnu_arcem7d/board/board.o
LOAD obj_emsk_22/gnu_arcem7d/arc/startup/arc_cxx_support.o
LOAD obj_emsk_22/gnu_arcem7d/arc/startup/arc_startup.o
START GROUP
LOAD obj_emsk_22/gnu_arcem7d/libembarc.a
LOAD d:/arc_gnu/bin/../lib/gcc/arc-elf32/7.1.1/../../../../arc-elf32/lib/em4_dmips\libm.a
LOAD d:/arc_gnu/bin/../lib/gcc/arc-elf32/7.1.1/../../../../arc-elf32/lib/em4_dmips\libc.a
LOAD d:/arc_gnu/bin/../lib/gcc/arc-elf32/7.1.1/em4_dmips\libgcc.a
END GROUP
START GROUP
LOAD d:/arc_gnu/bin/../lib/gcc/arc-elf32/7.1.1/em4_dmips\libgcc.a
LOAD d:/arc_gnu/bin/../lib/gcc/arc-elf32/7.1.1/../../../../arc-elf32/lib/em4_dmips\libc.a
LOAD d:/arc_gnu/bin/../lib/gcc/arc-elf32/7.1.1/../../../../arc-elf32/lib/em4_dmips\libnosys.a
END GROUP
OUTPUT(Vending_Machine.elf elf32-littlearc)

.debug_info     0x00000000    0xd3391
 .debug_info    0x00000000      0xfc1 obj_emsk_22/gnu_arcem7d/application/./Source/main.o
 .debug_info    0x00000fc1     0x1b63 obj_emsk_22/gnu_arcem7d/board/board.o
 .debug_info    0x00002b24      0x1cf obj_emsk_22/gnu_arcem7d/arc/startup/arc_cxx_support.o
 .debug_info    0x00002cf3       0x26 obj_emsk_22/gnu_arcem7d/arc/startup/arc_startup.o
 .debug_info    0x00002d19      0x3de obj_emsk_22/gnu_arcem7d/board/emsk/common/emsk_init.o
 .debug_info    0x000030f7      0x6a7 obj_emsk_22/gnu_arcem7d/board/emsk/drivers/mux/mux.o
 .debug_info    0x0000379e     0x1b65 obj_emsk_22/gnu_arcem7d/board/emsk/drivers/pmwifi/pmwifi.o
 .debug_info    0x00005303      0xf95 obj_emsk_22/gnu_arcem7d/middleware/common/console_io.o
 .debug_info    0x00006298      0x4b9 obj_emsk_22/gnu_arcem7d/middleware/common/xprintf/xprintf.o
 .debug_info    0x00006751     0x21c5 obj_emsk_22/gnu_arcem7d/middleware/fatfs/src/ff.o
 .debug_info    0x00008916      0x21c obj_emsk_22/gnu_arcem7d/middleware/fatfs/src/ff_unicode.o
 .debug_info    0x00008b32     0x1d1f obj_emsk_22/gnu_arcem7d/middleware/lwip-contrib/ports/arc/lwip_pmwifi.o
 .debug_info    0x0000a851     0x196c obj_emsk_22/gnu_arcem7d/middleware/lwip-contrib/ports/arc/netif/pmwifi_netif.o
 .debug_info    0x0000c1bd     0x1109 obj_emsk_22/gnu_arcem7d/middleware/lwip-contrib/ports/arc/sys_arch/freertos/sys_arch.o
 .debug_info    0x0000d2c6      0xcff obj_emsk_22/gnu_arcem7d/middleware/vending-machine/source/led_task.o
 .debug_info    0x0000dfc5      0xe71 obj_emsk_22/gnu_arcem7d/middleware/vending-machine/source/temp_task.o
 .debug_info    0x0000ee36      0xde7 obj_emsk_22/gnu_arcem7d/middleware/vending-machine/source/vm_task.o
 .debug_info    0x0000fc1d     0x30c9 obj_emsk_22/gnu_arcem7d/middleware/vending-machine/source/oled_task.o
 .debug_info    0x00012ce6      0xfd5 obj_emsk_22/gnu_arcem7d/middleware/vending-machine/source/numpad_task.o
 .debug_info    0x00013cbb     0x2edf obj_emsk_22/gnu_arcem7d/middleware/vending-machine/source/communication_task.o
 .debug_info    0x00016b9a      0xcbe obj_emsk_22/gnu_arcem7d/os/freertos/portable/synopsys/arc/arc_freertos_exceptions.o
 .debug_info    0x00017858     0x1c30 obj_emsk_22/gnu_arcem7d/os/freertos/tasks.o
 .debug_info    0x00019488      0xaa9 obj_emsk_22/gnu_arcem7d/os/freertos/list.o
 .debug_info    0x00019f31     0x1407 obj_emsk_22/gnu_arcem7d/os/freertos/queue.o
 .debug_info    0x0001b338      0x1cb obj_emsk_22/gnu_arcem7d/arc/arc_timer.o
 .debug_info    0x0001b503      0x612 obj_emsk_22/gnu_arcem7d/arc/arc_cache.o
 .debug_info    0x0001bb15      0x953 obj_emsk_22/gnu_arcem7d/arc/arc_exception.o
 .debug_info    0x0001c468       0x26 obj_emsk_22/gnu_arcem7d/arc/arc_exc_asm.o
 .debug_info    0x0001c48e      0x947 obj_emsk_22/gnu_arcem7d/library/clib/embarc_misc.o
 .debug_info    0x0001cdd5      0xd4d obj_emsk_22/gnu_arcem7d/board/emsk/drivers/ip/designware/gpio/dw_gpio_obj.o
 .debug_info    0x0001db22      0xae6 obj_emsk_22/gnu_arcem7d/board/emsk/drivers/ip/designware/uart/dw_uart_obj.o
 .debug_info    0x0001e608      0xd85 obj_emsk_22/gnu_arcem7d/device/ip/designware/gpio/dw_gpio.o
 .debug_info    0x0001f38d     0x1901 obj_emsk_22/gnu_arcem7d/device/ip/designware/uart/dw_uart.o
 .debug_info    0x00020c8e      0xa53 obj_emsk_22/gnu_arcem7d/device/peripheral/sensor/temperature/adt7420/adt7420.o
 .debug_info    0x000216e1     0x2cec obj_emsk_22/gnu_arcem7d/device/peripheral/wifi/rw009/rw009.o
 .debug_info    0x000243cd      0x767 obj_emsk_22/gnu_arcem7d/board/emsk/common/emsk_gpio.o
 .debug_info    0x00024b34      0xd6a obj_emsk_22/gnu_arcem7d/board/emsk/common/emsk_timer.o
 .debug_info    0x0002589e      0xacd obj_emsk_22/gnu_arcem7d/board/emsk/drivers/sdcard/emsk_sdcard.o
 .debug_info    0x0002636b      0x3dc obj_emsk_22/gnu_arcem7d/middleware/fatfs/src/diskio.o
 .debug_info    0x00026747     0x2137 obj_emsk_22/gnu_arcem7d/middleware/lwip/src/core/pbuf.o
 .debug_info    0x0002887e     0x19b4 obj_emsk_22/gnu_arcem7d/middleware/lwip/src/core/dns.o
 .debug_info    0x0002a232      0xec8 obj_emsk_22/gnu_arcem7d/middleware/lwip/src/core/mem.o
 .debug_info    0x0002b0fa     0x1665 obj_emsk_22/gnu_arcem7d/middleware/lwip/src/core/udp.o
 .debug_info    0x0002c75f      0xb7b obj_emsk_22/gnu_arcem7d/middleware/lwip/src/core/def.o
 .debug_info    0x0002d2da     0x232e obj_emsk_22/gnu_arcem7d/middleware/lwip/src/core/tcp.o
 .debug_info    0x0002f608     0x1a2b obj_emsk_22/gnu_arcem7d/middleware/lwip/src/core/netif.o
 .debug_info    0x00031033     0x1951 obj_emsk_22/gnu_arcem7d/middleware/lwip/src/core/timeouts.o
 .debug_info    0x00032984     0x19fd obj_emsk_22/gnu_arcem7d/middleware/lwip/src/core/tcp_in.o
 .debug_info    0x00034381     0x1ca3 obj_emsk_22/gnu_arcem7d/middleware/lwip/src/core/memp.o
 .debug_info    0x00036024      0xe76 obj_emsk_22/gnu_arcem7d/middleware/lwip/src/core/inet_chksum.o
 .debug_info    0x00036e9a     0x111b obj_emsk_22/gnu_arcem7d/middleware/lwip/src/core/ipv4/icmp.o
 .debug_info    0x00037fb5     0x1915 obj_emsk_22/gnu_arcem7d/middleware/lwip/src/core/ipv4/ip4.o
 .debug_info    0x000398ca      0xfcb obj_emsk_22/gnu_arcem7d/middleware/lwip/src/core/ipv4/ip4_addr.o
 .debug_info    0x0003a895     0x1854 obj_emsk_22/gnu_arcem7d/middleware/lwip/src/core/ipv4/etharp.o
 .debug_info    0x0003c0e9     0x1e6f obj_emsk_22/gnu_arcem7d/middleware/lwip/src/core/ipv4/dhcp.o
 .debug_info    0x0003df58     0x156d obj_emsk_22/gnu_arcem7d/middleware/lwip/src/core/ipv4/ip4_frag.o
 .debug_info    0x0003f4c5     0x10e7 obj_emsk_22/gnu_arcem7d/middleware/lwip/src/netif/ethernet.o
 .debug_info    0x000405ac     0x14d8 obj_emsk_22/gnu_arcem7d/middleware/lwip/src/api/tcpip.o
 .debug_info    0x00041a84     0x1293 obj_emsk_22/gnu_arcem7d/middleware/mbedtls/library/ctr_drbg.o
 .debug_info    0x00042d17     0x2e1b obj_emsk_22/gnu_arcem7d/middleware/mbedtls/library/x509_crt.o
 .debug_info    0x00045b32     0x1e86 obj_emsk_22/gnu_arcem7d/middleware/mbedtls/library/x509.o
 .debug_info    0x000479b8      0xf29 obj_emsk_22/gnu_arcem7d/middleware/mbedtls/library/ssl_ciphersuites.o
 .debug_info    0x000488e1      0x51b obj_emsk_22/gnu_arcem7d/middleware/mbedtls/library/certs.o
 .debug_info    0x00048dfc      0xa0d obj_emsk_22/gnu_arcem7d/middleware/mbedtls/library/threading.o
 .debug_info    0x00049809     0x152b obj_emsk_22/gnu_arcem7d/middleware/mbedtls/library/pk.o
 .debug_info    0x0004ad34      0xede obj_emsk_22/gnu_arcem7d/middleware/mbedtls/library/asn1parse.o
 .debug_info    0x0004bc12     0x1eed obj_emsk_22/gnu_arcem7d/middleware/mbedtls/library/rsa.o
 .debug_info    0x0004daff     0x173c obj_emsk_22/gnu_arcem7d/middleware/mbedtls/library/oid.o
 .debug_info    0x0004f23b      0xd98 obj_emsk_22/gnu_arcem7d/middleware/mbedtls/library/sha1.o
 .debug_info    0x0004ffd3     0x1948 obj_emsk_22/gnu_arcem7d/middleware/mbedtls/library/pkparse.o
 .debug_info    0x0005191b     0x6006 obj_emsk_22/gnu_arcem7d/middleware/mbedtls/library/ssl_tls.o
 .debug_info    0x00057921     0x10b2 obj_emsk_22/gnu_arcem7d/middleware/mbedtls/library/dhm.o
 .debug_info    0x000589d3     0x1a97 obj_emsk_22/gnu_arcem7d/middleware/mbedtls/library/cipher.o
 .debug_info    0x0005a46a      0xe27 obj_emsk_22/gnu_arcem7d/middleware/mbedtls/library/sha512.o
 .debug_info    0x0005b291     0x10f7 obj_emsk_22/gnu_arcem7d/middleware/mbedtls/library/entropy.o
 .debug_info    0x0005c388     0x13be obj_emsk_22/gnu_arcem7d/middleware/mbedtls/library/aes.o
 .debug_info    0x0005d746     0x212a obj_emsk_22/gnu_arcem7d/middleware/mbedtls/library/debug.o
 .debug_info    0x0005f870      0xbae obj_emsk_22/gnu_arcem7d/middleware/mbedtls/library/havege.o
 .debug_info    0x0006041e      0xaca obj_emsk_22/gnu_arcem7d/middleware/mbedtls/library/entropy_poll.o
 .debug_info    0x00060ee8      0xa62 obj_emsk_22/gnu_arcem7d/middleware/mbedtls/library/error.o
 .debug_info    0x0006194a     0x10b2 obj_emsk_22/gnu_arcem7d/middleware/mbedtls/library/pem.o
 .debug_info    0x000629fc     0x127b obj_emsk_22/gnu_arcem7d/middleware/mbedtls/library/pkcs12.o
 .debug_info    0x00063c77      0xa24 obj_emsk_22/gnu_arcem7d/middleware/mbedtls/embarc/threading_alt.o
 .debug_info    0x0006469b      0xe64 obj_emsk_22/gnu_arcem7d/middleware/mbedtls/embarc/timing_alt.o
 .debug_info    0x000654ff     0x1278 obj_emsk_22/gnu_arcem7d/middleware/mbedtls/embarc/net_alt.o
 .debug_info    0x00066777     0x32e7 obj_emsk_22/gnu_arcem7d/middleware/u8glib/csrc/u8g_com_embarc_ssd1306_spi.o
 .debug_info    0x00069a5e     0x228b obj_emsk_22/gnu_arcem7d/middleware/u8glib/csrc/u8g_dev_embarc_ssd1306_128x64.o
 .debug_info    0x0006bce9     0x2325 obj_emsk_22/gnu_arcem7d/middleware/u8glib/csrc/u8g_pb.o
 .debug_info    0x0006e00e     0x2ae5 obj_emsk_22/gnu_arcem7d/middleware/u8glib/csrc/u8g_pb16v1.o
 .debug_info    0x00070af3     0x38d4 obj_emsk_22/gnu_arcem7d/middleware/u8glib/csrc/u8g_font.o
 .debug_info    0x000743c7     0x2aa7 obj_emsk_22/gnu_arcem7d/middleware/u8glib/csrc/u8g_pb8v1.o
 .debug_info    0x00076e6e     0x23d6 obj_emsk_22/gnu_arcem7d/middleware/u8glib/csrc/u8g_rect.o
 .debug_info    0x00079244     0x297b obj_emsk_22/gnu_arcem7d/middleware/u8glib/csrc/u8g_ll_api.o
 .debug_info    0x0007bbbf     0x2cbe obj_emsk_22/gnu_arcem7d/middleware/u8glib/csrc/u8g_delay.o
 .debug_info    0x0007e87d     0x2114 obj_emsk_22/gnu_arcem7d/middleware/u8glib/csrc/u8g_clip.o
 .debug_info    0x00080991     0x20df obj_emsk_22/gnu_arcem7d/middleware/u8glib/csrc/u8g_line.o
 .debug_info    0x00082a70     0x208c obj_emsk_22/gnu_arcem7d/middleware/u8glib/csrc/u8g_state.o
 .debug_info    0x00084afc     0x2333 obj_emsk_22/gnu_arcem7d/middleware/u8glib/csrc/u8g_circle.o
 .debug_info    0x00086e2f     0x201b obj_emsk_22/gnu_arcem7d/middleware/u8glib/fntsrc/u8g_font_gdr30.o
 .debug_info    0x00088e4a     0x201b obj_emsk_22/gnu_arcem7d/middleware/u8glib/fntsrc/u8g_font_gdr20.o
 .debug_info    0x0008ae65     0x201b obj_emsk_22/gnu_arcem7d/middleware/u8glib/fntsrc/u8g_font_6x10.o
 .debug_info    0x0008ce80      0xd4e obj_emsk_22/gnu_arcem7d/os/freertos/portable/synopsys/arc/port.o
 .debug_info    0x0008dbce      0xafc obj_emsk_22/gnu_arcem7d/os/freertos/portable/heap_sel.o
 .debug_info    0x0008e6ca       0x26 obj_emsk_22/gnu_arcem7d/os/freertos/portable/synopsys/arc/arc_support.o
 .debug_info    0x0008e6f0     0x116e obj_emsk_22/gnu_arcem7d/library/clib/fatfs_dirent.o
 .debug_info    0x0008f85e      0xdbc obj_emsk_22/gnu_arcem7d/board/emsk/drivers/ip/designware/iic/dw_iic_obj.o
 .debug_info    0x0009061a      0xcfc obj_emsk_22/gnu_arcem7d/board/emsk/drivers/ip/designware/spi/dw_spi_obj.o
 .debug_info    0x00091316     0x228d obj_emsk_22/gnu_arcem7d/device/ip/designware/iic/dw_iic.o
 .debug_info    0x000935a3     0x21e2 obj_emsk_22/gnu_arcem7d/device/ip/designware/spi/dw_spi.o
 .debug_info    0x00095785      0xe2f obj_emsk_22/gnu_arcem7d/board/emsk/drivers/sdcard/emsk_sdcard_spi.o
 .debug_info    0x000965b4      0xb7f obj_emsk_22/gnu_arcem7d/middleware/fatfs/src/diskdrv/ff_sdcard_spi.o
 .debug_info    0x00097133     0x1e6e obj_emsk_22/gnu_arcem7d/middleware/lwip/src/core/tcp_out.o
 .debug_info    0x00098fa1     0x132e obj_emsk_22/gnu_arcem7d/middleware/lwip/src/core/raw.o
 .debug_info    0x0009a2cf      0xe42 obj_emsk_22/gnu_arcem7d/middleware/lwip/src/core/ip.o
 .debug_info    0x0009b111     0x1601 obj_emsk_22/gnu_arcem7d/middleware/lwip/src/core/init.o
 .debug_info    0x0009c712     0x333a obj_emsk_22/gnu_arcem7d/middleware/lwip/src/api/sockets.o
 .debug_info    0x0009fa4c      0xa52 obj_emsk_22/gnu_arcem7d/middleware/lwip/src/api/err.o
 .debug_info    0x000a049e      0xe41 obj_emsk_22/gnu_arcem7d/middleware/lwip/src/api/netbuf.o
 .debug_info    0x000a12df     0x2295 obj_emsk_22/gnu_arcem7d/middleware/lwip/src/api/api_lib.o
 .debug_info    0x000a3574     0x1199 obj_emsk_22/gnu_arcem7d/middleware/lwip/src/api/netdb.o
 .debug_info    0x000a470d     0x250e obj_emsk_22/gnu_arcem7d/middleware/mbedtls/library/bignum.o
 .debug_info    0x000a6c1b     0x392e obj_emsk_22/gnu_arcem7d/middleware/mbedtls/library/ssl_cli.o
 .debug_info    0x000aa549     0x1ae8 obj_emsk_22/gnu_arcem7d/middleware/mbedtls/library/pk_wrap.o
 .debug_info    0x000ac031      0xb1b obj_emsk_22/gnu_arcem7d/middleware/mbedtls/library/base64.o
 .debug_info    0x000acb4c     0x115d obj_emsk_22/gnu_arcem7d/middleware/mbedtls/library/md.o
 .debug_info    0x000adca9     0x121d obj_emsk_22/gnu_arcem7d/middleware/mbedtls/library/ccm.o
 .debug_info    0x000aeec6     0x17c8 obj_emsk_22/gnu_arcem7d/middleware/mbedtls/library/ecp_curves.o
 .debug_info    0x000b068e      0xb98 obj_emsk_22/gnu_arcem7d/middleware/mbedtls/library/arc4.o
 .debug_info    0x000b1226     0x2376 obj_emsk_22/gnu_arcem7d/middleware/mbedtls/library/ecp.o
 .debug_info    0x000b359c      0xf68 obj_emsk_22/gnu_arcem7d/middleware/mbedtls/library/ecdh.o
 .debug_info    0x000b4504     0x2330 obj_emsk_22/gnu_arcem7d/middleware/mbedtls/library/cipher_wrap.o
 .debug_info    0x000b6834     0x12d4 obj_emsk_22/gnu_arcem7d/middleware/mbedtls/library/des.o
 .debug_info    0x000b7b08      0xd0e obj_emsk_22/gnu_arcem7d/middleware/mbedtls/library/md5.o
 .debug_info    0x000b8816     0x12aa obj_emsk_22/gnu_arcem7d/middleware/mbedtls/library/pkcs5.o
 .debug_info    0x000b9ac0     0x15e3 obj_emsk_22/gnu_arcem7d/middleware/mbedtls/library/gcm.o
 .debug_info    0x000bb0a3      0xdca obj_emsk_22/gnu_arcem7d/middleware/mbedtls/library/sha256.o
 .debug_info    0x000bbe6d     0x3b75 obj_emsk_22/gnu_arcem7d/middleware/mbedtls/library/ssl_srv.o
 .debug_info    0x000bf9e2     0x13fe obj_emsk_22/gnu_arcem7d/middleware/mbedtls/library/ecdsa.o
 .debug_info    0x000c0de0     0x14fe obj_emsk_22/gnu_arcem7d/middleware/mbedtls/library/md_wrap.o
 .debug_info    0x000c22de     0x117f obj_emsk_22/gnu_arcem7d/middleware/mbedtls/library/hmac_drbg.o
 .debug_info    0x000c345d     0x269c obj_emsk_22/gnu_arcem7d/middleware/u8glib/csrc/u8g_com_embarc_ssd1306_i2c.o
 .debug_info    0x000c5af9     0x22c4 obj_emsk_22/gnu_arcem7d/middleware/u8glib/csrc/u8g_com_api.o
 .debug_info    0x000c7dbd     0x2105 obj_emsk_22/gnu_arcem7d/middleware/u8glib/csrc/u8g_page.o
 .debug_info    0x000c9ec2     0x26b7 obj_emsk_22/gnu_arcem7d/middleware/lwip/src/api/api_msg.o
 .debug_info    0x000cc579      0xd2a obj_emsk_22/gnu_arcem7d/middleware/mbedtls/library/ripemd160.o
 .debug_info    0x000cd2a3     0x1247 obj_emsk_22/gnu_arcem7d/middleware/mbedtls/library/camellia.o
 .debug_info    0x000ce4ea      0xf71 obj_emsk_22/gnu_arcem7d/middleware/mbedtls/library/asn1write.o
 .debug_info    0x000cf45b      0xe28 obj_emsk_22/gnu_arcem7d/middleware/mbedtls/library/blowfish.o
 .debug_info    0x000d0283      0x990 obj_emsk_22/gnu_arcem7d/library/clib/embarc_sbrk.o
 .debug_info    0x000d0c13     0x1d03 obj_emsk_22/gnu_arcem7d/library/clib/embarc_syscalls.o
 .debug_info    0x000d2916      0xa7b obj_emsk_22/gnu_arcem7d/library/clib/embarc_target.o

.debug_abbrev   0x00000000    0x173d6
 .debug_abbrev  0x00000000      0x2b6 obj_emsk_22/gnu_arcem7d/application/./Source/main.o
 .debug_abbrev  0x000002b6      0x314 obj_emsk_22/gnu_arcem7d/board/board.o
 .debug_abbrev  0x000005ca      0x140 obj_emsk_22/gnu_arcem7d/arc/startup/arc_cxx_support.o
 .debug_abbrev  0x0000070a       0x14 obj_emsk_22/gnu_arcem7d/arc/startup/arc_startup.o
 .debug_abbrev  0x0000071e      0x16e obj_emsk_22/gnu_arcem7d/board/emsk/common/emsk_init.o
 .debug_abbrev  0x0000088c      0x232 obj_emsk_22/gnu_arcem7d/board/emsk/drivers/mux/mux.o
 .debug_abbrev  0x00000abe      0x316 obj_emsk_22/gnu_arcem7d/board/emsk/drivers/pmwifi/pmwifi.o
 .debug_abbrev  0x00000dd4      0x26b obj_emsk_22/gnu_arcem7d/middleware/common/console_io.o
 .debug_abbrev  0x0000103f      0x183 obj_emsk_22/gnu_arcem7d/middleware/common/xprintf/xprintf.o
 .debug_abbrev  0x000011c2      0x201 obj_emsk_22/gnu_arcem7d/middleware/fatfs/src/ff.o
 .debug_abbrev  0x000013c3       0xb1 obj_emsk_22/gnu_arcem7d/middleware/fatfs/src/ff_unicode.o
 .debug_abbrev  0x00001474      0x318 obj_emsk_22/gnu_arcem7d/middleware/lwip-contrib/ports/arc/lwip_pmwifi.o
 .debug_abbrev  0x0000178c      0x2fd obj_emsk_22/gnu_arcem7d/middleware/lwip-contrib/ports/arc/netif/pmwifi_netif.o
 .debug_abbrev  0x00001a89      0x2d2 obj_emsk_22/gnu_arcem7d/middleware/lwip-contrib/ports/arc/sys_arch/freertos/sys_arch.o
 .debug_abbrev  0x00001d5b      0x21f obj_emsk_22/gnu_arcem7d/middleware/vending-machine/source/led_task.o
 .debug_abbrev  0x00001f7a      0x253 obj_emsk_22/gnu_arcem7d/middleware/vending-machine/source/temp_task.o
 .debug_abbrev  0x000021cd      0x255 obj_emsk_22/gnu_arcem7d/middleware/vending-machine/source/vm_task.o
 .debug_abbrev  0x00002422      0x2c5 obj_emsk_22/gnu_arcem7d/middleware/vending-machine/source/oled_task.o
 .debug_abbrev  0x000026e7      0x26f obj_emsk_22/gnu_arcem7d/middleware/vending-machine/source/numpad_task.o
 .debug_abbrev  0x00002956      0x36c obj_emsk_22/gnu_arcem7d/middleware/vending-machine/source/communication_task.o
 .debug_abbrev  0x00002cc2      0x210 obj_emsk_22/gnu_arcem7d/os/freertos/portable/synopsys/arc/arc_freertos_exceptions.o
 .debug_abbrev  0x00002ed2      0x311 obj_emsk_22/gnu_arcem7d/os/freertos/tasks.o
 .debug_abbrev  0x000031e3      0x202 obj_emsk_22/gnu_arcem7d/os/freertos/list.o
 .debug_abbrev  0x000033e5      0x285 obj_emsk_22/gnu_arcem7d/os/freertos/queue.o
 .debug_abbrev  0x0000366a       0xc0 obj_emsk_22/gnu_arcem7d/arc/arc_timer.o
 .debug_abbrev  0x0000372a      0x1be obj_emsk_22/gnu_arcem7d/arc/arc_cache.o
 .debug_abbrev  0x000038e8      0x30f obj_emsk_22/gnu_arcem7d/arc/arc_exception.o
 .debug_abbrev  0x00003bf7       0x14 obj_emsk_22/gnu_arcem7d/arc/arc_exc_asm.o
 .debug_abbrev  0x00003c0b      0x1a7 obj_emsk_22/gnu_arcem7d/library/clib/embarc_misc.o
 .debug_abbrev  0x00003db2      0x2c0 obj_emsk_22/gnu_arcem7d/board/emsk/drivers/ip/designware/gpio/dw_gpio_obj.o
 .debug_abbrev  0x00004072      0x269 obj_emsk_22/gnu_arcem7d/board/emsk/drivers/ip/designware/uart/dw_uart_obj.o
 .debug_abbrev  0x000042db      0x273 obj_emsk_22/gnu_arcem7d/device/ip/designware/gpio/dw_gpio.o
 .debug_abbrev  0x0000454e      0x341 obj_emsk_22/gnu_arcem7d/device/ip/designware/uart/dw_uart.o
 .debug_abbrev  0x0000488f      0x20b obj_emsk_22/gnu_arcem7d/device/peripheral/sensor/temperature/adt7420/adt7420.o
 .debug_abbrev  0x00004a9a      0x3bc obj_emsk_22/gnu_arcem7d/device/peripheral/wifi/rw009/rw009.o
 .debug_abbrev  0x00004e56      0x1d3 obj_emsk_22/gnu_arcem7d/board/emsk/common/emsk_gpio.o
 .debug_abbrev  0x00005029      0x2a1 obj_emsk_22/gnu_arcem7d/board/emsk/common/emsk_timer.o
 .debug_abbrev  0x000052ca      0x21a obj_emsk_22/gnu_arcem7d/board/emsk/drivers/sdcard/emsk_sdcard.o
 .debug_abbrev  0x000054e4      0x139 obj_emsk_22/gnu_arcem7d/middleware/fatfs/src/diskio.o
 .debug_abbrev  0x0000561d      0x35f obj_emsk_22/gnu_arcem7d/middleware/lwip/src/core/pbuf.o
 .debug_abbrev  0x0000597c      0x302 obj_emsk_22/gnu_arcem7d/middleware/lwip/src/core/dns.o
 .debug_abbrev  0x00005c7e      0x29f obj_emsk_22/gnu_arcem7d/middleware/lwip/src/core/mem.o
 .debug_abbrev  0x00005f1d      0x344 obj_emsk_22/gnu_arcem7d/middleware/lwip/src/core/udp.o
 .debug_abbrev  0x00006261      0x249 obj_emsk_22/gnu_arcem7d/middleware/lwip/src/core/def.o
 .debug_abbrev  0x000064aa      0x3e1 obj_emsk_22/gnu_arcem7d/middleware/lwip/src/core/tcp.o
 .debug_abbrev  0x0000688b      0x324 obj_emsk_22/gnu_arcem7d/middleware/lwip/src/core/netif.o
 .debug_abbrev  0x00006baf      0x34e obj_emsk_22/gnu_arcem7d/middleware/lwip/src/core/timeouts.o
 .debug_abbrev  0x00006efd      0x327 obj_emsk_22/gnu_arcem7d/middleware/lwip/src/core/tcp_in.o
 .debug_abbrev  0x00007224      0x320 obj_emsk_22/gnu_arcem7d/middleware/lwip/src/core/memp.o
 .debug_abbrev  0x00007544      0x26e obj_emsk_22/gnu_arcem7d/middleware/lwip/src/core/inet_chksum.o
 .debug_abbrev  0x000077b2      0x2c7 obj_emsk_22/gnu_arcem7d/middleware/lwip/src/core/ipv4/icmp.o
 .debug_abbrev  0x00007a79      0x299 obj_emsk_22/gnu_arcem7d/middleware/lwip/src/core/ipv4/ip4.o
 .debug_abbrev  0x00007d12      0x2df obj_emsk_22/gnu_arcem7d/middleware/lwip/src/core/ipv4/ip4_addr.o
 .debug_abbrev  0x00007ff1      0x319 obj_emsk_22/gnu_arcem7d/middleware/lwip/src/core/ipv4/etharp.o
 .debug_abbrev  0x0000830a      0x34b obj_emsk_22/gnu_arcem7d/middleware/lwip/src/core/ipv4/dhcp.o
 .debug_abbrev  0x00008655      0x31b obj_emsk_22/gnu_arcem7d/middleware/lwip/src/core/ipv4/ip4_frag.o
 .debug_abbrev  0x00008970      0x2b5 obj_emsk_22/gnu_arcem7d/middleware/lwip/src/netif/ethernet.o
 .debug_abbrev  0x00008c25      0x304 obj_emsk_22/gnu_arcem7d/middleware/lwip/src/api/tcpip.o
 .debug_abbrev  0x00008f29      0x303 obj_emsk_22/gnu_arcem7d/middleware/mbedtls/library/ctr_drbg.o
 .debug_abbrev  0x0000922c      0x380 obj_emsk_22/gnu_arcem7d/middleware/mbedtls/library/x509_crt.o
 .debug_abbrev  0x000095ac      0x31e obj_emsk_22/gnu_arcem7d/middleware/mbedtls/library/x509.o
 .debug_abbrev  0x000098ca      0x23c obj_emsk_22/gnu_arcem7d/middleware/mbedtls/library/ssl_ciphersuites.o
 .debug_abbrev  0x00009b06       0x7c obj_emsk_22/gnu_arcem7d/middleware/mbedtls/library/certs.o
 .debug_abbrev  0x00009b82      0x1e2 obj_emsk_22/gnu_arcem7d/middleware/mbedtls/library/threading.o
 .debug_abbrev  0x00009d64      0x311 obj_emsk_22/gnu_arcem7d/middleware/mbedtls/library/pk.o
 .debug_abbrev  0x0000a075      0x276 obj_emsk_22/gnu_arcem7d/middleware/mbedtls/library/asn1parse.o
 .debug_abbrev  0x0000a2eb      0x2fb obj_emsk_22/gnu_arcem7d/middleware/mbedtls/library/rsa.o
 .debug_abbrev  0x0000a5e6      0x2ae obj_emsk_22/gnu_arcem7d/middleware/mbedtls/library/oid.o
 .debug_abbrev  0x0000a894      0x2a6 obj_emsk_22/gnu_arcem7d/middleware/mbedtls/library/sha1.o
 .debug_abbrev  0x0000ab3a      0x2f4 obj_emsk_22/gnu_arcem7d/middleware/mbedtls/library/pkparse.o
 .debug_abbrev  0x0000ae2e      0x3ee obj_emsk_22/gnu_arcem7d/middleware/mbedtls/library/ssl_tls.o
 .debug_abbrev  0x0000b21c      0x2e9 obj_emsk_22/gnu_arcem7d/middleware/mbedtls/library/dhm.o
 .debug_abbrev  0x0000b505      0x35b obj_emsk_22/gnu_arcem7d/middleware/mbedtls/library/cipher.o
 .debug_abbrev  0x0000b860      0x29d obj_emsk_22/gnu_arcem7d/middleware/mbedtls/library/sha512.o
 .debug_abbrev  0x0000bafd      0x2dc obj_emsk_22/gnu_arcem7d/middleware/mbedtls/library/entropy.o
 .debug_abbrev  0x0000bdd9      0x293 obj_emsk_22/gnu_arcem7d/middleware/mbedtls/library/aes.o
 .debug_abbrev  0x0000c06c      0x2f7 obj_emsk_22/gnu_arcem7d/middleware/mbedtls/library/debug.o
 .debug_abbrev  0x0000c363      0x262 obj_emsk_22/gnu_arcem7d/middleware/mbedtls/library/havege.o
 .debug_abbrev  0x0000c5c5      0x21e obj_emsk_22/gnu_arcem7d/middleware/mbedtls/library/entropy_poll.o
 .debug_abbrev  0x0000c7e3      0x1ea obj_emsk_22/gnu_arcem7d/middleware/mbedtls/library/error.o
 .debug_abbrev  0x0000c9cd      0x2eb obj_emsk_22/gnu_arcem7d/middleware/mbedtls/library/pem.o
 .debug_abbrev  0x0000ccb8      0x298 obj_emsk_22/gnu_arcem7d/middleware/mbedtls/library/pkcs12.o
 .debug_abbrev  0x0000cf50      0x1f3 obj_emsk_22/gnu_arcem7d/middleware/mbedtls/embarc/threading_alt.o
 .debug_abbrev  0x0000d143      0x2b6 obj_emsk_22/gnu_arcem7d/middleware/mbedtls/embarc/timing_alt.o
 .debug_abbrev  0x0000d3f9      0x2c9 obj_emsk_22/gnu_arcem7d/middleware/mbedtls/embarc/net_alt.o
 .debug_abbrev  0x0000d6c2      0x2f1 obj_emsk_22/gnu_arcem7d/middleware/u8glib/csrc/u8g_com_embarc_ssd1306_spi.o
 .debug_abbrev  0x0000d9b3      0x184 obj_emsk_22/gnu_arcem7d/middleware/u8glib/csrc/u8g_dev_embarc_ssd1306_128x64.o
 .debug_abbrev  0x0000db37      0x17f obj_emsk_22/gnu_arcem7d/middleware/u8glib/csrc/u8g_pb.o
 .debug_abbrev  0x0000dcb6      0x247 obj_emsk_22/gnu_arcem7d/middleware/u8glib/csrc/u8g_pb16v1.o
 .debug_abbrev  0x0000defd      0x27b obj_emsk_22/gnu_arcem7d/middleware/u8glib/csrc/u8g_font.o
 .debug_abbrev  0x0000e178      0x247 obj_emsk_22/gnu_arcem7d/middleware/u8glib/csrc/u8g_pb8v1.o
 .debug_abbrev  0x0000e3bf      0x164 obj_emsk_22/gnu_arcem7d/middleware/u8glib/csrc/u8g_rect.o
 .debug_abbrev  0x0000e523      0x22e obj_emsk_22/gnu_arcem7d/middleware/u8glib/csrc/u8g_ll_api.o
 .debug_abbrev  0x0000e751      0x25a obj_emsk_22/gnu_arcem7d/middleware/u8glib/csrc/u8g_delay.o
 .debug_abbrev  0x0000e9ab      0x172 obj_emsk_22/gnu_arcem7d/middleware/u8glib/csrc/u8g_clip.o
 .debug_abbrev  0x0000eb1d      0x136 obj_emsk_22/gnu_arcem7d/middleware/u8glib/csrc/u8g_line.o
 .debug_abbrev  0x0000ec53      0x15b obj_emsk_22/gnu_arcem7d/middleware/u8glib/csrc/u8g_state.o
 .debug_abbrev  0x0000edae      0x1d2 obj_emsk_22/gnu_arcem7d/middleware/u8glib/csrc/u8g_circle.o
 .debug_abbrev  0x0000ef80       0xfa obj_emsk_22/gnu_arcem7d/middleware/u8glib/fntsrc/u8g_font_gdr30.o
 .debug_abbrev  0x0000f07a       0xfa obj_emsk_22/gnu_arcem7d/middleware/u8glib/fntsrc/u8g_font_gdr20.o
 .debug_abbrev  0x0000f174       0xfa obj_emsk_22/gnu_arcem7d/middleware/u8glib/fntsrc/u8g_font_6x10.o
 .debug_abbrev  0x0000f26e      0x2f1 obj_emsk_22/gnu_arcem7d/os/freertos/portable/synopsys/arc/port.o
 .debug_abbrev  0x0000f55f      0x271 obj_emsk_22/gnu_arcem7d/os/freertos/portable/heap_sel.o
 .debug_abbrev  0x0000f7d0       0x14 obj_emsk_22/gnu_arcem7d/os/freertos/portable/synopsys/arc/arc_support.o
 .debug_abbrev  0x0000f7e4      0x27e obj_emsk_22/gnu_arcem7d/library/clib/fatfs_dirent.o
 .debug_abbrev  0x0000fa62      0x264 obj_emsk_22/gnu_arcem7d/board/emsk/drivers/ip/designware/iic/dw_iic_obj.o
 .debug_abbrev  0x0000fcc6      0x25e obj_emsk_22/gnu_arcem7d/board/emsk/drivers/ip/designware/spi/dw_spi_obj.o
 .debug_abbrev  0x0000ff24      0x34c obj_emsk_22/gnu_arcem7d/device/ip/designware/iic/dw_iic.o
 .debug_abbrev  0x00010270      0x364 obj_emsk_22/gnu_arcem7d/device/ip/designware/spi/dw_spi.o
 .debug_abbrev  0x000105d4      0x283 obj_emsk_22/gnu_arcem7d/board/emsk/drivers/sdcard/emsk_sdcard_spi.o
 .debug_abbrev  0x00010857      0x24e obj_emsk_22/gnu_arcem7d/middleware/fatfs/src/diskdrv/ff_sdcard_spi.o
 .debug_abbrev  0x00010aa5      0x336 obj_emsk_22/gnu_arcem7d/middleware/lwip/src/core/tcp_out.o
 .debug_abbrev  0x00010ddb      0x330 obj_emsk_22/gnu_arcem7d/middleware/lwip/src/core/raw.o
 .debug_abbrev  0x0001110b      0x1dd obj_emsk_22/gnu_arcem7d/middleware/lwip/src/core/ip.o
 .debug_abbrev  0x000112e8      0x1f6 obj_emsk_22/gnu_arcem7d/middleware/lwip/src/core/init.o
 .debug_abbrev  0x000114de      0x325 obj_emsk_22/gnu_arcem7d/middleware/lwip/src/api/sockets.o
 .debug_abbrev  0x00011803      0x1f3 obj_emsk_22/gnu_arcem7d/middleware/lwip/src/api/err.o
 .debug_abbrev  0x000119f6      0x239 obj_emsk_22/gnu_arcem7d/middleware/lwip/src/api/netbuf.o
 .debug_abbrev  0x00011c2f      0x30d obj_emsk_22/gnu_arcem7d/middleware/lwip/src/api/api_lib.o
 .debug_abbrev  0x00011f3c      0x2c1 obj_emsk_22/gnu_arcem7d/middleware/lwip/src/api/netdb.o
 .debug_abbrev  0x000121fd      0x322 obj_emsk_22/gnu_arcem7d/middleware/mbedtls/library/bignum.o
 .debug_abbrev  0x0001251f      0x36a obj_emsk_22/gnu_arcem7d/middleware/mbedtls/library/ssl_cli.o
 .debug_abbrev  0x00012889      0x321 obj_emsk_22/gnu_arcem7d/middleware/mbedtls/library/pk_wrap.o
 .debug_abbrev  0x00012baa      0x21d obj_emsk_22/gnu_arcem7d/middleware/mbedtls/library/base64.o
 .debug_abbrev  0x00012dc7      0x308 obj_emsk_22/gnu_arcem7d/middleware/mbedtls/library/md.o
 .debug_abbrev  0x000130cf      0x2c9 obj_emsk_22/gnu_arcem7d/middleware/mbedtls/library/ccm.o
 .debug_abbrev  0x00013398      0x254 obj_emsk_22/gnu_arcem7d/middleware/mbedtls/library/ecp_curves.o
 .debug_abbrev  0x000135ec      0x270 obj_emsk_22/gnu_arcem7d/middleware/mbedtls/library/arc4.o
 .debug_abbrev  0x0001385c      0x327 obj_emsk_22/gnu_arcem7d/middleware/mbedtls/library/ecp.o
 .debug_abbrev  0x00013b83      0x24d obj_emsk_22/gnu_arcem7d/middleware/mbedtls/library/ecdh.o
 .debug_abbrev  0x00013dd0      0x2dd obj_emsk_22/gnu_arcem7d/middleware/mbedtls/library/cipher_wrap.o
 .debug_abbrev  0x000140ad      0x2ba obj_emsk_22/gnu_arcem7d/middleware/mbedtls/library/des.o
 .debug_abbrev  0x00014367      0x290 obj_emsk_22/gnu_arcem7d/middleware/mbedtls/library/md5.o
 .debug_abbrev  0x000145f7      0x28e obj_emsk_22/gnu_arcem7d/middleware/mbedtls/library/pkcs5.o
 .debug_abbrev  0x00014885      0x2ff obj_emsk_22/gnu_arcem7d/middleware/mbedtls/library/gcm.o
 .debug_abbrev  0x00014b84      0x29d obj_emsk_22/gnu_arcem7d/middleware/mbedtls/library/sha256.o
 .debug_abbrev  0x00014e21      0x3af obj_emsk_22/gnu_arcem7d/middleware/mbedtls/library/ssl_srv.o
 .debug_abbrev  0x000151d0      0x2c0 obj_emsk_22/gnu_arcem7d/middleware/mbedtls/library/ecdsa.o
 .debug_abbrev  0x00015490      0x2a5 obj_emsk_22/gnu_arcem7d/middleware/mbedtls/library/md_wrap.o
 .debug_abbrev  0x00015735      0x2ff obj_emsk_22/gnu_arcem7d/middleware/mbedtls/library/hmac_drbg.o
 .debug_abbrev  0x00015a34      0x1de obj_emsk_22/gnu_arcem7d/middleware/u8glib/csrc/u8g_com_embarc_ssd1306_i2c.o
 .debug_abbrev  0x00015c12      0x16e obj_emsk_22/gnu_arcem7d/middleware/u8glib/csrc/u8g_com_api.o
 .debug_abbrev  0x00015d80      0x16c obj_emsk_22/gnu_arcem7d/middleware/u8glib/csrc/u8g_page.o
 .debug_abbrev  0x00015eec      0x35a obj_emsk_22/gnu_arcem7d/middleware/lwip/src/api/api_msg.o
 .debug_abbrev  0x00016246      0x281 obj_emsk_22/gnu_arcem7d/middleware/mbedtls/library/ripemd160.o
 .debug_abbrev  0x000164c7      0x27f obj_emsk_22/gnu_arcem7d/middleware/mbedtls/library/camellia.o
 .debug_abbrev  0x00016746      0x27c obj_emsk_22/gnu_arcem7d/middleware/mbedtls/library/asn1write.o
 .debug_abbrev  0x000169c2      0x2a6 obj_emsk_22/gnu_arcem7d/middleware/mbedtls/library/blowfish.o
 .debug_abbrev  0x00016c68      0x1d7 obj_emsk_22/gnu_arcem7d/library/clib/embarc_sbrk.o
 .debug_abbrev  0x00016e3f      0x392 obj_emsk_22/gnu_arcem7d/library/clib/embarc_syscalls.o
 .debug_abbrev  0x000171d1      0x205 obj_emsk_22/gnu_arcem7d/library/clib/embarc_target.o

.debug_aranges  0x00000000     0x12b8
 .debug_aranges
                0x00000000       0x20 obj_emsk_22/gnu_arcem7d/application/./Source/main.o
 .debug_aranges
                0x00000020       0x20 obj_emsk_22/gnu_arcem7d/board/board.o
 .debug_aranges
                0x00000040       0x20 obj_emsk_22/gnu_arcem7d/arc/startup/arc_cxx_support.o
 .debug_aranges
                0x00000060       0x20 obj_emsk_22/gnu_arcem7d/arc/startup/arc_startup.o
 .debug_aranges
                0x00000080       0x20 obj_emsk_22/gnu_arcem7d/board/emsk/common/emsk_init.o
 .debug_aranges
                0x000000a0       0x20 obj_emsk_22/gnu_arcem7d/board/emsk/drivers/mux/mux.o
 .debug_aranges
                0x000000c0       0x20 obj_emsk_22/gnu_arcem7d/board/emsk/drivers/pmwifi/pmwifi.o
 .debug_aranges
                0x000000e0       0x20 obj_emsk_22/gnu_arcem7d/middleware/common/console_io.o
 .debug_aranges
                0x00000100       0x20 obj_emsk_22/gnu_arcem7d/middleware/common/xprintf/xprintf.o
 .debug_aranges
                0x00000120       0x20 obj_emsk_22/gnu_arcem7d/middleware/fatfs/src/ff.o
 .debug_aranges
                0x00000140       0x20 obj_emsk_22/gnu_arcem7d/middleware/fatfs/src/ff_unicode.o
 .debug_aranges
                0x00000160       0x20 obj_emsk_22/gnu_arcem7d/middleware/lwip-contrib/ports/arc/lwip_pmwifi.o
 .debug_aranges
                0x00000180       0x20 obj_emsk_22/gnu_arcem7d/middleware/lwip-contrib/ports/arc/netif/pmwifi_netif.o
 .debug_aranges
                0x000001a0       0x20 obj_emsk_22/gnu_arcem7d/middleware/lwip-contrib/ports/arc/sys_arch/freertos/sys_arch.o
 .debug_aranges
                0x000001c0       0x20 obj_emsk_22/gnu_arcem7d/middleware/vending-machine/source/led_task.o
 .debug_aranges
                0x000001e0       0x20 obj_emsk_22/gnu_arcem7d/middleware/vending-machine/source/temp_task.o
 .debug_aranges
                0x00000200       0x20 obj_emsk_22/gnu_arcem7d/middleware/vending-machine/source/vm_task.o
 .debug_aranges
                0x00000220       0x20 obj_emsk_22/gnu_arcem7d/middleware/vending-machine/source/oled_task.o
 .debug_aranges
                0x00000240       0x20 obj_emsk_22/gnu_arcem7d/middleware/vending-machine/source/numpad_task.o
 .debug_aranges
                0x00000260       0x20 obj_emsk_22/gnu_arcem7d/middleware/vending-machine/source/communication_task.o
 .debug_aranges
                0x00000280       0x20 obj_emsk_22/gnu_arcem7d/os/freertos/portable/synopsys/arc/arc_freertos_exceptions.o
 .debug_aranges
                0x000002a0       0x20 obj_emsk_22/gnu_arcem7d/os/freertos/tasks.o
 .debug_aranges
                0x000002c0       0x20 obj_emsk_22/gnu_arcem7d/os/freertos/list.o
 .debug_aranges
                0x000002e0       0x20 obj_emsk_22/gnu_arcem7d/os/freertos/queue.o
 .debug_aranges
                0x00000300       0x20 obj_emsk_22/gnu_arcem7d/arc/arc_timer.o
 .debug_aranges
                0x00000320       0x20 obj_emsk_22/gnu_arcem7d/arc/arc_cache.o
 .debug_aranges
                0x00000340       0x20 obj_emsk_22/gnu_arcem7d/arc/arc_exception.o
 .debug_aranges
                0x00000360       0x20 obj_emsk_22/gnu_arcem7d/arc/arc_exc_asm.o
 .debug_aranges
                0x00000380       0x20 obj_emsk_22/gnu_arcem7d/library/clib/embarc_misc.o
 .debug_aranges
                0x000003a0       0x20 obj_emsk_22/gnu_arcem7d/board/emsk/drivers/ip/designware/gpio/dw_gpio_obj.o
 .debug_aranges
                0x000003c0       0x20 obj_emsk_22/gnu_arcem7d/board/emsk/drivers/ip/designware/uart/dw_uart_obj.o
 .debug_aranges
                0x000003e0       0x20 obj_emsk_22/gnu_arcem7d/device/ip/designware/gpio/dw_gpio.o
 .debug_aranges
                0x00000400       0x20 obj_emsk_22/gnu_arcem7d/device/ip/designware/uart/dw_uart.o
 .debug_aranges
                0x00000420       0x20 obj_emsk_22/gnu_arcem7d/device/peripheral/sensor/temperature/adt7420/adt7420.o
 .debug_aranges
                0x00000440       0x20 obj_emsk_22/gnu_arcem7d/device/peripheral/wifi/rw009/rw009.o
 .debug_aranges
                0x00000460       0x20 obj_emsk_22/gnu_arcem7d/board/emsk/common/emsk_gpio.o
 .debug_aranges
                0x00000480       0x20 obj_emsk_22/gnu_arcem7d/board/emsk/common/emsk_timer.o
 .debug_aranges
                0x000004a0       0x20 obj_emsk_22/gnu_arcem7d/board/emsk/drivers/sdcard/emsk_sdcard.o
 .debug_aranges
                0x000004c0       0x20 obj_emsk_22/gnu_arcem7d/middleware/fatfs/src/diskio.o
 .debug_aranges
                0x000004e0       0x20 obj_emsk_22/gnu_arcem7d/middleware/lwip/src/core/pbuf.o
 .debug_aranges
                0x00000500       0x20 obj_emsk_22/gnu_arcem7d/middleware/lwip/src/core/dns.o
 .debug_aranges
                0x00000520       0x20 obj_emsk_22/gnu_arcem7d/middleware/lwip/src/core/mem.o
 .debug_aranges
                0x00000540       0x20 obj_emsk_22/gnu_arcem7d/middleware/lwip/src/core/udp.o
 .debug_aranges
                0x00000560       0x20 obj_emsk_22/gnu_arcem7d/middleware/lwip/src/core/def.o
 .debug_aranges
                0x00000580       0x20 obj_emsk_22/gnu_arcem7d/middleware/lwip/src/core/tcp.o
 .debug_aranges
                0x000005a0       0x20 obj_emsk_22/gnu_arcem7d/middleware/lwip/src/core/netif.o
 .debug_aranges
                0x000005c0       0x20 obj_emsk_22/gnu_arcem7d/middleware/lwip/src/core/timeouts.o
 .debug_aranges
                0x000005e0       0x20 obj_emsk_22/gnu_arcem7d/middleware/lwip/src/core/tcp_in.o
 .debug_aranges
                0x00000600       0x20 obj_emsk_22/gnu_arcem7d/middleware/lwip/src/core/memp.o
 .debug_aranges
                0x00000620       0x20 obj_emsk_22/gnu_arcem7d/middleware/lwip/src/core/inet_chksum.o
 .debug_aranges
                0x00000640       0x20 obj_emsk_22/gnu_arcem7d/middleware/lwip/src/core/ipv4/icmp.o
 .debug_aranges
                0x00000660       0x20 obj_emsk_22/gnu_arcem7d/middleware/lwip/src/core/ipv4/ip4.o
 .debug_aranges
                0x00000680       0x20 obj_emsk_22/gnu_arcem7d/middleware/lwip/src/core/ipv4/ip4_addr.o
 .debug_aranges
                0x000006a0       0x20 obj_emsk_22/gnu_arcem7d/middleware/lwip/src/core/ipv4/etharp.o
 .debug_aranges
                0x000006c0       0x20 obj_emsk_22/gnu_arcem7d/middleware/lwip/src/core/ipv4/dhcp.o
 .debug_aranges
                0x000006e0       0x20 obj_emsk_22/gnu_arcem7d/middleware/lwip/src/core/ipv4/ip4_frag.o
 .debug_aranges
                0x00000700       0x20 obj_emsk_22/gnu_arcem7d/middleware/lwip/src/netif/ethernet.o
 .debug_aranges
                0x00000720       0x20 obj_emsk_22/gnu_arcem7d/middleware/lwip/src/api/tcpip.o
 .debug_aranges
                0x00000740       0x20 obj_emsk_22/gnu_arcem7d/middleware/mbedtls/library/ctr_drbg.o
 .debug_aranges
                0x00000760       0x20 obj_emsk_22/gnu_arcem7d/middleware/mbedtls/library/x509_crt.o
 .debug_aranges
                0x00000780       0x20 obj_emsk_22/gnu_arcem7d/middleware/mbedtls/library/x509.o
 .debug_aranges
                0x000007a0       0x20 obj_emsk_22/gnu_arcem7d/middleware/mbedtls/library/ssl_ciphersuites.o
 .debug_aranges
                0x000007c0       0x18 obj_emsk_22/gnu_arcem7d/middleware/mbedtls/library/certs.o
 .debug_aranges
                0x000007d8       0x20 obj_emsk_22/gnu_arcem7d/middleware/mbedtls/library/threading.o
 .debug_aranges
                0x000007f8       0x20 obj_emsk_22/gnu_arcem7d/middleware/mbedtls/library/pk.o
 .debug_aranges
                0x00000818       0x20 obj_emsk_22/gnu_arcem7d/middleware/mbedtls/library/asn1parse.o
 .debug_aranges
                0x00000838       0x20 obj_emsk_22/gnu_arcem7d/middleware/mbedtls/library/rsa.o
 .debug_aranges
                0x00000858       0x20 obj_emsk_22/gnu_arcem7d/middleware/mbedtls/library/oid.o
 .debug_aranges
                0x00000878       0x20 obj_emsk_22/gnu_arcem7d/middleware/mbedtls/library/sha1.o
 .debug_aranges
                0x00000898       0x20 obj_emsk_22/gnu_arcem7d/middleware/mbedtls/library/pkparse.o
 .debug_aranges
                0x000008b8       0x20 obj_emsk_22/gnu_arcem7d/middleware/mbedtls/library/ssl_tls.o
 .debug_aranges
                0x000008d8       0x20 obj_emsk_22/gnu_arcem7d/middleware/mbedtls/library/dhm.o
 .debug_aranges
                0x000008f8       0x20 obj_emsk_22/gnu_arcem7d/middleware/mbedtls/library/cipher.o
 .debug_aranges
                0x00000918       0x20 obj_emsk_22/gnu_arcem7d/middleware/mbedtls/library/sha512.o
 .debug_aranges
                0x00000938       0x20 obj_emsk_22/gnu_arcem7d/middleware/mbedtls/library/entropy.o
 .debug_aranges
                0x00000958       0x20 obj_emsk_22/gnu_arcem7d/middleware/mbedtls/library/aes.o
 .debug_aranges
                0x00000978       0x20 obj_emsk_22/gnu_arcem7d/middleware/mbedtls/library/debug.o
 .debug_aranges
                0x00000998       0x20 obj_emsk_22/gnu_arcem7d/middleware/mbedtls/library/havege.o
 .debug_aranges
                0x000009b8       0x20 obj_emsk_22/gnu_arcem7d/middleware/mbedtls/library/entropy_poll.o
 .debug_aranges
                0x000009d8       0x20 obj_emsk_22/gnu_arcem7d/middleware/mbedtls/library/error.o
 .debug_aranges
                0x000009f8       0x20 obj_emsk_22/gnu_arcem7d/middleware/mbedtls/library/pem.o
 .debug_aranges
                0x00000a18       0x20 obj_emsk_22/gnu_arcem7d/middleware/mbedtls/library/pkcs12.o
 .debug_aranges
                0x00000a38       0x20 obj_emsk_22/gnu_arcem7d/middleware/mbedtls/embarc/threading_alt.o
 .debug_aranges
                0x00000a58       0x20 obj_emsk_22/gnu_arcem7d/middleware/mbedtls/embarc/timing_alt.o
 .debug_aranges
                0x00000a78       0x20 obj_emsk_22/gnu_arcem7d/middleware/mbedtls/embarc/net_alt.o
 .debug_aranges
                0x00000a98       0x20 obj_emsk_22/gnu_arcem7d/middleware/u8glib/csrc/u8g_com_embarc_ssd1306_spi.o
 .debug_aranges
                0x00000ab8       0x20 obj_emsk_22/gnu_arcem7d/middleware/u8glib/csrc/u8g_dev_embarc_ssd1306_128x64.o
 .debug_aranges
                0x00000ad8       0x20 obj_emsk_22/gnu_arcem7d/middleware/u8glib/csrc/u8g_pb.o
 .debug_aranges
                0x00000af8       0x20 obj_emsk_22/gnu_arcem7d/middleware/u8glib/csrc/u8g_pb16v1.o
 .debug_aranges
                0x00000b18       0x20 obj_emsk_22/gnu_arcem7d/middleware/u8glib/csrc/u8g_font.o
 .debug_aranges
                0x00000b38       0x20 obj_emsk_22/gnu_arcem7d/middleware/u8glib/csrc/u8g_pb8v1.o
 .debug_aranges
                0x00000b58       0x20 obj_emsk_22/gnu_arcem7d/middleware/u8glib/csrc/u8g_rect.o
 .debug_aranges
                0x00000b78       0x20 obj_emsk_22/gnu_arcem7d/middleware/u8glib/csrc/u8g_ll_api.o
 .debug_aranges
                0x00000b98       0x20 obj_emsk_22/gnu_arcem7d/middleware/u8glib/csrc/u8g_delay.o
 .debug_aranges
                0x00000bb8       0x20 obj_emsk_22/gnu_arcem7d/middleware/u8glib/csrc/u8g_clip.o
 .debug_aranges
                0x00000bd8       0x20 obj_emsk_22/gnu_arcem7d/middleware/u8glib/csrc/u8g_line.o
 .debug_aranges
                0x00000bf8       0x20 obj_emsk_22/gnu_arcem7d/middleware/u8glib/csrc/u8g_state.o
 .debug_aranges
                0x00000c18       0x20 obj_emsk_22/gnu_arcem7d/middleware/u8glib/csrc/u8g_circle.o
 .debug_aranges
                0x00000c38       0x18 obj_emsk_22/gnu_arcem7d/middleware/u8glib/fntsrc/u8g_font_gdr30.o
 .debug_aranges
                0x00000c50       0x18 obj_emsk_22/gnu_arcem7d/middleware/u8glib/fntsrc/u8g_font_gdr20.o
 .debug_aranges
                0x00000c68       0x18 obj_emsk_22/gnu_arcem7d/middleware/u8glib/fntsrc/u8g_font_6x10.o
 .debug_aranges
                0x00000c80       0x20 obj_emsk_22/gnu_arcem7d/os/freertos/portable/synopsys/arc/port.o
 .debug_aranges
                0x00000ca0       0x20 obj_emsk_22/gnu_arcem7d/os/freertos/portable/heap_sel.o
 .debug_aranges
                0x00000cc0       0x20 obj_emsk_22/gnu_arcem7d/os/freertos/portable/synopsys/arc/arc_support.o
 .debug_aranges
                0x00000ce0       0x20 obj_emsk_22/gnu_arcem7d/library/clib/fatfs_dirent.o
 .debug_aranges
                0x00000d00       0x20 obj_emsk_22/gnu_arcem7d/board/emsk/drivers/ip/designware/iic/dw_iic_obj.o
 .debug_aranges
                0x00000d20       0x20 obj_emsk_22/gnu_arcem7d/board/emsk/drivers/ip/designware/spi/dw_spi_obj.o
 .debug_aranges
                0x00000d40       0x20 obj_emsk_22/gnu_arcem7d/device/ip/designware/iic/dw_iic.o
 .debug_aranges
                0x00000d60       0x20 obj_emsk_22/gnu_arcem7d/device/ip/designware/spi/dw_spi.o
 .debug_aranges
                0x00000d80       0x20 obj_emsk_22/gnu_arcem7d/board/emsk/drivers/sdcard/emsk_sdcard_spi.o
 .debug_aranges
                0x00000da0       0x20 obj_emsk_22/gnu_arcem7d/middleware/fatfs/src/diskdrv/ff_sdcard_spi.o
 .debug_aranges
                0x00000dc0       0x20 obj_emsk_22/gnu_arcem7d/middleware/lwip/src/core/tcp_out.o
 .debug_aranges
                0x00000de0       0x20 obj_emsk_22/gnu_arcem7d/middleware/lwip/src/core/raw.o
 .debug_aranges
                0x00000e00       0x18 obj_emsk_22/gnu_arcem7d/middleware/lwip/src/core/ip.o
 .debug_aranges
                0x00000e18       0x20 obj_emsk_22/gnu_arcem7d/middleware/lwip/src/core/init.o
 .debug_aranges
                0x00000e38       0x20 obj_emsk_22/gnu_arcem7d/middleware/lwip/src/api/sockets.o
 .debug_aranges
                0x00000e58       0x20 obj_emsk_22/gnu_arcem7d/middleware/lwip/src/api/err.o
 .debug_aranges
                0x00000e78       0x20 obj_emsk_22/gnu_arcem7d/middleware/lwip/src/api/netbuf.o
 .debug_aranges
                0x00000e98       0x20 obj_emsk_22/gnu_arcem7d/middleware/lwip/src/api/api_lib.o
 .debug_aranges
                0x00000eb8       0x20 obj_emsk_22/gnu_arcem7d/middleware/lwip/src/api/netdb.o
 .debug_aranges
                0x00000ed8       0x20 obj_emsk_22/gnu_arcem7d/middleware/mbedtls/library/bignum.o
 .debug_aranges
                0x00000ef8       0x20 obj_emsk_22/gnu_arcem7d/middleware/mbedtls/library/ssl_cli.o
 .debug_aranges
                0x00000f18       0x20 obj_emsk_22/gnu_arcem7d/middleware/mbedtls/library/pk_wrap.o
 .debug_aranges
                0x00000f38       0x20 obj_emsk_22/gnu_arcem7d/middleware/mbedtls/library/base64.o
 .debug_aranges
                0x00000f58       0x20 obj_emsk_22/gnu_arcem7d/middleware/mbedtls/library/md.o
 .debug_aranges
                0x00000f78       0x20 obj_emsk_22/gnu_arcem7d/middleware/mbedtls/library/ccm.o
 .debug_aranges
                0x00000f98       0x20 obj_emsk_22/gnu_arcem7d/middleware/mbedtls/library/ecp_curves.o
 .debug_aranges
                0x00000fb8       0x20 obj_emsk_22/gnu_arcem7d/middleware/mbedtls/library/arc4.o
 .debug_aranges
                0x00000fd8       0x20 obj_emsk_22/gnu_arcem7d/middleware/mbedtls/library/ecp.o
 .debug_aranges
                0x00000ff8       0x20 obj_emsk_22/gnu_arcem7d/middleware/mbedtls/library/ecdh.o
 .debug_aranges
                0x00001018       0x20 obj_emsk_22/gnu_arcem7d/middleware/mbedtls/library/cipher_wrap.o
 .debug_aranges
                0x00001038       0x20 obj_emsk_22/gnu_arcem7d/middleware/mbedtls/library/des.o
 .debug_aranges
                0x00001058       0x20 obj_emsk_22/gnu_arcem7d/middleware/mbedtls/library/md5.o
 .debug_aranges
                0x00001078       0x20 obj_emsk_22/gnu_arcem7d/middleware/mbedtls/library/pkcs5.o
 .debug_aranges
                0x00001098       0x20 obj_emsk_22/gnu_arcem7d/middleware/mbedtls/library/gcm.o
 .debug_aranges
                0x000010b8       0x20 obj_emsk_22/gnu_arcem7d/middleware/mbedtls/library/sha256.o
 .debug_aranges
                0x000010d8       0x20 obj_emsk_22/gnu_arcem7d/middleware/mbedtls/library/ssl_srv.o
 .debug_aranges
                0x000010f8       0x20 obj_emsk_22/gnu_arcem7d/middleware/mbedtls/library/ecdsa.o
 .debug_aranges
                0x00001118       0x20 obj_emsk_22/gnu_arcem7d/middleware/mbedtls/library/md_wrap.o
 .debug_aranges
                0x00001138       0x20 obj_emsk_22/gnu_arcem7d/middleware/mbedtls/library/hmac_drbg.o
 .debug_aranges
                0x00001158       0x20 obj_emsk_22/gnu_arcem7d/middleware/u8glib/csrc/u8g_com_embarc_ssd1306_i2c.o
 .debug_aranges
                0x00001178       0x20 obj_emsk_22/gnu_arcem7d/middleware/u8glib/csrc/u8g_com_api.o
 .debug_aranges
                0x00001198       0x20 obj_emsk_22/gnu_arcem7d/middleware/u8glib/csrc/u8g_page.o
 .debug_aranges
                0x000011b8       0x20 obj_emsk_22/gnu_arcem7d/middleware/lwip/src/api/api_msg.o
 .debug_aranges
                0x000011d8       0x20 obj_emsk_22/gnu_arcem7d/middleware/mbedtls/library/ripemd160.o
 .debug_aranges
                0x000011f8       0x20 obj_emsk_22/gnu_arcem7d/middleware/mbedtls/library/camellia.o
 .debug_aranges
                0x00001218       0x20 obj_emsk_22/gnu_arcem7d/middleware/mbedtls/library/asn1write.o
 .debug_aranges
                0x00001238       0x20 obj_emsk_22/gnu_arcem7d/middleware/mbedtls/library/blowfish.o
 .debug_aranges
                0x00001258       0x20 obj_emsk_22/gnu_arcem7d/library/clib/embarc_sbrk.o
 .debug_aranges
                0x00001278       0x20 obj_emsk_22/gnu_arcem7d/library/clib/embarc_syscalls.o
 .debug_aranges
                0x00001298       0x20 obj_emsk_22/gnu_arcem7d/library/clib/embarc_target.o

.debug_line     0x00000000    0x2e03c
 .debug_line    0x00000000      0x4b6 obj_emsk_22/gnu_arcem7d/application/./Source/main.o
 .debug_line    0x000004b6      0x561 obj_emsk_22/gnu_arcem7d/board/board.o
 .debug_line    0x00000a17       0x8d obj_emsk_22/gnu_arcem7d/arc/startup/arc_cxx_support.o
 .debug_line    0x00000aa4       0xc3 obj_emsk_22/gnu_arcem7d/arc/startup/arc_startup.o
 .debug_line    0x00000b67      0x1e0 obj_emsk_22/gnu_arcem7d/board/emsk/common/emsk_init.o
 .debug_line    0x00000d47      0x290 obj_emsk_22/gnu_arcem7d/board/emsk/drivers/mux/mux.o
 .debug_line    0x00000fd7      0x3ca obj_emsk_22/gnu_arcem7d/board/emsk/drivers/pmwifi/pmwifi.o
 .debug_line    0x000013a1      0x3f1 obj_emsk_22/gnu_arcem7d/middleware/common/console_io.o
 .debug_line    0x00001792      0x31b obj_emsk_22/gnu_arcem7d/middleware/common/xprintf/xprintf.o
 .debug_line    0x00001aad     0x144b obj_emsk_22/gnu_arcem7d/middleware/fatfs/src/ff.o
 .debug_line    0x00002ef8      0x179 obj_emsk_22/gnu_arcem7d/middleware/fatfs/src/ff_unicode.o
 .debug_line    0x00003071      0x86a obj_emsk_22/gnu_arcem7d/middleware/lwip-contrib/ports/arc/lwip_pmwifi.o
 .debug_line    0x000038db      0x58e obj_emsk_22/gnu_arcem7d/middleware/lwip-contrib/ports/arc/netif/pmwifi_netif.o
 .debug_line    0x00003e69      0x4cd obj_emsk_22/gnu_arcem7d/middleware/lwip-contrib/ports/arc/sys_arch/freertos/sys_arch.o
 .debug_line    0x00004336      0x3a6 obj_emsk_22/gnu_arcem7d/middleware/vending-machine/source/led_task.o
 .debug_line    0x000046dc      0x413 obj_emsk_22/gnu_arcem7d/middleware/vending-machine/source/temp_task.o
 .debug_line    0x00004aef      0x3c5 obj_emsk_22/gnu_arcem7d/middleware/vending-machine/source/vm_task.o
 .debug_line    0x00004eb4      0x532 obj_emsk_22/gnu_arcem7d/middleware/vending-machine/source/oled_task.o
 .debug_line    0x000053e6      0x411 obj_emsk_22/gnu_arcem7d/middleware/vending-machine/source/numpad_task.o
 .debug_line    0x000057f7      0xa2b obj_emsk_22/gnu_arcem7d/middleware/vending-machine/source/communication_task.o
 .debug_line    0x00006222      0x36b obj_emsk_22/gnu_arcem7d/os/freertos/portable/synopsys/arc/arc_freertos_exceptions.o
 .debug_line    0x0000658d      0x92a obj_emsk_22/gnu_arcem7d/os/freertos/tasks.o
 .debug_line    0x00006eb7      0x1b5 obj_emsk_22/gnu_arcem7d/os/freertos/list.o
 .debug_line    0x0000706c      0x4e0 obj_emsk_22/gnu_arcem7d/os/freertos/queue.o
 .debug_line    0x0000754c      0x123 obj_emsk_22/gnu_arcem7d/arc/arc_timer.o
 .debug_line    0x0000766f      0x297 obj_emsk_22/gnu_arcem7d/arc/arc_cache.o
 .debug_line    0x00007906      0x30e obj_emsk_22/gnu_arcem7d/arc/arc_exception.o
 .debug_line    0x00007c14       0x88 obj_emsk_22/gnu_arcem7d/arc/arc_exc_asm.o
 .debug_line    0x00007c9c      0x182 obj_emsk_22/gnu_arcem7d/library/clib/embarc_misc.o
 .debug_line    0x00007e1e      0x331 obj_emsk_22/gnu_arcem7d/board/emsk/drivers/ip/designware/gpio/dw_gpio_obj.o
 .debug_line    0x0000814f      0x318 obj_emsk_22/gnu_arcem7d/board/emsk/drivers/ip/designware/uart/dw_uart_obj.o
 .debug_line    0x00008467      0x3c9 obj_emsk_22/gnu_arcem7d/device/ip/designware/gpio/dw_gpio.o
 .debug_line    0x00008830      0x565 obj_emsk_22/gnu_arcem7d/device/ip/designware/uart/dw_uart.o
 .debug_line    0x00008d95      0x32c obj_emsk_22/gnu_arcem7d/device/peripheral/sensor/temperature/adt7420/adt7420.o
 .debug_line    0x000090c1      0x93a obj_emsk_22/gnu_arcem7d/device/peripheral/wifi/rw009/rw009.o
 .debug_line    0x000099fb      0x262 obj_emsk_22/gnu_arcem7d/board/emsk/common/emsk_gpio.o
 .debug_line    0x00009c5d      0x2cc obj_emsk_22/gnu_arcem7d/board/emsk/common/emsk_timer.o
 .debug_line    0x00009f29      0x1dc obj_emsk_22/gnu_arcem7d/board/emsk/drivers/sdcard/emsk_sdcard.o
 .debug_line    0x0000a105      0x15e obj_emsk_22/gnu_arcem7d/middleware/fatfs/src/diskio.o
 .debug_line    0x0000a263      0x8fb obj_emsk_22/gnu_arcem7d/middleware/lwip/src/core/pbuf.o
 .debug_line    0x0000ab5e      0x63e obj_emsk_22/gnu_arcem7d/middleware/lwip/src/core/dns.o
 .debug_line    0x0000b19c      0x506 obj_emsk_22/gnu_arcem7d/middleware/lwip/src/core/mem.o
 .debug_line    0x0000b6a2      0x5e5 obj_emsk_22/gnu_arcem7d/middleware/lwip/src/core/udp.o
 .debug_line    0x0000bc87      0x272 obj_emsk_22/gnu_arcem7d/middleware/lwip/src/core/def.o
 .debug_line    0x0000bef9      0xa35 obj_emsk_22/gnu_arcem7d/middleware/lwip/src/core/tcp.o
 .debug_line    0x0000c92e      0x534 obj_emsk_22/gnu_arcem7d/middleware/lwip/src/core/netif.o
 .debug_line    0x0000ce62      0x53e obj_emsk_22/gnu_arcem7d/middleware/lwip/src/core/timeouts.o
 .debug_line    0x0000d3a0      0xc45 obj_emsk_22/gnu_arcem7d/middleware/lwip/src/core/tcp_in.o
 .debug_line    0x0000dfe5      0x528 obj_emsk_22/gnu_arcem7d/middleware/lwip/src/core/memp.o
 .debug_line    0x0000e50d      0x32a obj_emsk_22/gnu_arcem7d/middleware/lwip/src/core/inet_chksum.o
 .debug_line    0x0000e837      0x3ce obj_emsk_22/gnu_arcem7d/middleware/lwip/src/core/ipv4/icmp.o
 .debug_line    0x0000ec05      0x4c5 obj_emsk_22/gnu_arcem7d/middleware/lwip/src/core/ipv4/ip4.o
 .debug_line    0x0000f0ca      0x426 obj_emsk_22/gnu_arcem7d/middleware/lwip/src/core/ipv4/ip4_addr.o
 .debug_line    0x0000f4f0      0x6c8 obj_emsk_22/gnu_arcem7d/middleware/lwip/src/core/ipv4/etharp.o
 .debug_line    0x0000fbb8      0xab8 obj_emsk_22/gnu_arcem7d/middleware/lwip/src/core/ipv4/dhcp.o
 .debug_line    0x00010670      0x5cf obj_emsk_22/gnu_arcem7d/middleware/lwip/src/core/ipv4/ip4_frag.o
 .debug_line    0x00010c3f      0x3bd obj_emsk_22/gnu_arcem7d/middleware/lwip/src/netif/ethernet.o
 .debug_line    0x00010ffc      0x548 obj_emsk_22/gnu_arcem7d/middleware/lwip/src/api/tcpip.o
 .debug_line    0x00011544      0x539 obj_emsk_22/gnu_arcem7d/middleware/mbedtls/library/ctr_drbg.o
 .debug_line    0x00011a7d     0x10fa obj_emsk_22/gnu_arcem7d/middleware/mbedtls/library/x509_crt.o
 .debug_line    0x00012b77      0x9b7 obj_emsk_22/gnu_arcem7d/middleware/mbedtls/library/x509.o
 .debug_line    0x0001352e      0x318 obj_emsk_22/gnu_arcem7d/middleware/mbedtls/library/ssl_ciphersuites.o
 .debug_line    0x00013846       0xd2 obj_emsk_22/gnu_arcem7d/middleware/mbedtls/library/certs.o
 .debug_line    0x00013918      0x27b obj_emsk_22/gnu_arcem7d/middleware/mbedtls/library/threading.o
 .debug_line    0x00013b93      0x3ff obj_emsk_22/gnu_arcem7d/middleware/mbedtls/library/pk.o
 .debug_line    0x00013f92      0x2eb obj_emsk_22/gnu_arcem7d/middleware/mbedtls/library/asn1parse.o
 .debug_line    0x0001427d      0x9b7 obj_emsk_22/gnu_arcem7d/middleware/mbedtls/library/rsa.o
 .debug_line    0x00014c34      0x602 obj_emsk_22/gnu_arcem7d/middleware/mbedtls/library/oid.o
 .debug_line    0x00015236      0x3c7 obj_emsk_22/gnu_arcem7d/middleware/mbedtls/library/sha1.o
 .debug_line    0x000155fd      0x730 obj_emsk_22/gnu_arcem7d/middleware/mbedtls/library/pkparse.o
 .debug_line    0x00015d2d     0x1cf3 obj_emsk_22/gnu_arcem7d/middleware/mbedtls/library/ssl_tls.o
 .debug_line    0x00017a20      0x3f9 obj_emsk_22/gnu_arcem7d/middleware/mbedtls/library/dhm.o
 .debug_line    0x00017e19      0x5c3 obj_emsk_22/gnu_arcem7d/middleware/mbedtls/library/cipher.o
 .debug_line    0x000183dc      0x39a obj_emsk_22/gnu_arcem7d/middleware/mbedtls/library/sha512.o
 .debug_line    0x00018776      0x429 obj_emsk_22/gnu_arcem7d/middleware/mbedtls/library/entropy.o
 .debug_line    0x00018b9f      0x855 obj_emsk_22/gnu_arcem7d/middleware/mbedtls/library/aes.o
 .debug_line    0x000193f4      0x505 obj_emsk_22/gnu_arcem7d/middleware/mbedtls/library/debug.o
 .debug_line    0x000198f9      0x65d obj_emsk_22/gnu_arcem7d/middleware/mbedtls/library/havege.o
 .debug_line    0x00019f56      0x2a5 obj_emsk_22/gnu_arcem7d/middleware/mbedtls/library/entropy_poll.o
 .debug_line    0x0001a1fb      0x4fb obj_emsk_22/gnu_arcem7d/middleware/mbedtls/library/error.o
 .debug_line    0x0001a6f6      0x399 obj_emsk_22/gnu_arcem7d/middleware/mbedtls/library/pem.o
 .debug_line    0x0001aa8f      0x2b3 obj_emsk_22/gnu_arcem7d/middleware/mbedtls/library/pkcs12.o
 .debug_line    0x0001ad42      0x28c obj_emsk_22/gnu_arcem7d/middleware/mbedtls/embarc/threading_alt.o
 .debug_line    0x0001afce      0x3ce obj_emsk_22/gnu_arcem7d/middleware/mbedtls/embarc/timing_alt.o
 .debug_line    0x0001b39c      0x4ed obj_emsk_22/gnu_arcem7d/middleware/mbedtls/embarc/net_alt.o
 .debug_line    0x0001b889      0x474 obj_emsk_22/gnu_arcem7d/middleware/u8glib/csrc/u8g_com_embarc_ssd1306_spi.o
 .debug_line    0x0001bcfd      0x12d obj_emsk_22/gnu_arcem7d/middleware/u8glib/csrc/u8g_dev_embarc_ssd1306_128x64.o
 .debug_line    0x0001be2a      0x142 obj_emsk_22/gnu_arcem7d/middleware/u8glib/csrc/u8g_pb.o
 .debug_line    0x0001bf6c      0x1b5 obj_emsk_22/gnu_arcem7d/middleware/u8glib/csrc/u8g_pb16v1.o
 .debug_line    0x0001c121      0x57c obj_emsk_22/gnu_arcem7d/middleware/u8glib/csrc/u8g_font.o
 .debug_line    0x0001c69d      0x1a1 obj_emsk_22/gnu_arcem7d/middleware/u8glib/csrc/u8g_pb8v1.o
 .debug_line    0x0001c83e      0x1b4 obj_emsk_22/gnu_arcem7d/middleware/u8glib/csrc/u8g_rect.o
 .debug_line    0x0001c9f2      0x203 obj_emsk_22/gnu_arcem7d/middleware/u8glib/csrc/u8g_ll_api.o
 .debug_line    0x0001cbf5      0x3ba obj_emsk_22/gnu_arcem7d/middleware/u8glib/csrc/u8g_delay.o
 .debug_line    0x0001cfaf      0x128 obj_emsk_22/gnu_arcem7d/middleware/u8glib/csrc/u8g_clip.o
 .debug_line    0x0001d0d7      0x135 obj_emsk_22/gnu_arcem7d/middleware/u8glib/csrc/u8g_line.o
 .debug_line    0x0001d20c       0xea obj_emsk_22/gnu_arcem7d/middleware/u8glib/csrc/u8g_state.o
 .debug_line    0x0001d2f6      0x176 obj_emsk_22/gnu_arcem7d/middleware/u8glib/csrc/u8g_circle.o
 .debug_line    0x0001d46c      0x103 obj_emsk_22/gnu_arcem7d/middleware/u8glib/fntsrc/u8g_font_gdr30.o
 .debug_line    0x0001d56f      0x103 obj_emsk_22/gnu_arcem7d/middleware/u8glib/fntsrc/u8g_font_gdr20.o
 .debug_line    0x0001d672      0x102 obj_emsk_22/gnu_arcem7d/middleware/u8glib/fntsrc/u8g_font_6x10.o
 .debug_line    0x0001d774      0x2e2 obj_emsk_22/gnu_arcem7d/os/freertos/portable/synopsys/arc/port.o
 .debug_line    0x0001da56      0x21c obj_emsk_22/gnu_arcem7d/os/freertos/portable/heap_sel.o
 .debug_line    0x0001dc72      0x117 obj_emsk_22/gnu_arcem7d/os/freertos/portable/synopsys/arc/arc_support.o
 .debug_line    0x0001dd89      0x41f obj_emsk_22/gnu_arcem7d/library/clib/fatfs_dirent.o
 .debug_line    0x0001e1a8      0x312 obj_emsk_22/gnu_arcem7d/board/emsk/drivers/ip/designware/iic/dw_iic_obj.o
 .debug_line    0x0001e4ba      0x334 obj_emsk_22/gnu_arcem7d/board/emsk/drivers/ip/designware/spi/dw_spi_obj.o
 .debug_line    0x0001e7ee      0x827 obj_emsk_22/gnu_arcem7d/device/ip/designware/iic/dw_iic.o
 .debug_line    0x0001f015      0xa1e obj_emsk_22/gnu_arcem7d/device/ip/designware/spi/dw_spi.o
 .debug_line    0x0001fa33      0x2ab obj_emsk_22/gnu_arcem7d/board/emsk/drivers/sdcard/emsk_sdcard_spi.o
 .debug_line    0x0001fcde      0x4ad obj_emsk_22/gnu_arcem7d/middleware/fatfs/src/diskdrv/ff_sdcard_spi.o
 .debug_line    0x0002018b      0x912 obj_emsk_22/gnu_arcem7d/middleware/lwip/src/core/tcp_out.o
 .debug_line    0x00020a9d      0x450 obj_emsk_22/gnu_arcem7d/middleware/lwip/src/core/raw.o
 .debug_line    0x00020eed      0x2a6 obj_emsk_22/gnu_arcem7d/middleware/lwip/src/core/ip.o
 .debug_line    0x00021193      0x385 obj_emsk_22/gnu_arcem7d/middleware/lwip/src/core/init.o
 .debug_line    0x00021518      0xf79 obj_emsk_22/gnu_arcem7d/middleware/lwip/src/api/sockets.o
 .debug_line    0x00022491      0x27e obj_emsk_22/gnu_arcem7d/middleware/lwip/src/api/err.o
 .debug_line    0x0002270f      0x35d obj_emsk_22/gnu_arcem7d/middleware/lwip/src/api/netbuf.o
 .debug_line    0x00022a6c      0x783 obj_emsk_22/gnu_arcem7d/middleware/lwip/src/api/api_lib.o
 .debug_line    0x000231ef      0x409 obj_emsk_22/gnu_arcem7d/middleware/lwip/src/api/netdb.o
 .debug_line    0x000235f8     0x1028 obj_emsk_22/gnu_arcem7d/middleware/mbedtls/library/bignum.o
 .debug_line    0x00024620      0xf5d obj_emsk_22/gnu_arcem7d/middleware/mbedtls/library/ssl_cli.o
 .debug_line    0x0002557d      0x3ec obj_emsk_22/gnu_arcem7d/middleware/mbedtls/library/pk_wrap.o
 .debug_line    0x00025969      0x2c8 obj_emsk_22/gnu_arcem7d/middleware/mbedtls/library/base64.o
 .debug_line    0x00025c31      0x32f obj_emsk_22/gnu_arcem7d/middleware/mbedtls/library/md.o
 .debug_line    0x00025f60      0x394 obj_emsk_22/gnu_arcem7d/middleware/mbedtls/library/ccm.o
 .debug_line    0x000262f4      0x5ef obj_emsk_22/gnu_arcem7d/middleware/mbedtls/library/ecp_curves.o
 .debug_line    0x000268e3      0x22b obj_emsk_22/gnu_arcem7d/middleware/mbedtls/library/arc4.o
 .debug_line    0x00026b0e     0x1008 obj_emsk_22/gnu_arcem7d/middleware/mbedtls/library/ecp.o
 .debug_line    0x00027b16      0x23d obj_emsk_22/gnu_arcem7d/middleware/mbedtls/library/ecdh.o
 .debug_line    0x00027d53      0x32c obj_emsk_22/gnu_arcem7d/middleware/mbedtls/library/cipher_wrap.o
 .debug_line    0x0002807f      0x65c obj_emsk_22/gnu_arcem7d/middleware/mbedtls/library/des.o
 .debug_line    0x000286db      0x36f obj_emsk_22/gnu_arcem7d/middleware/mbedtls/library/md5.o
 .debug_line    0x00028a4a      0x3dd obj_emsk_22/gnu_arcem7d/middleware/mbedtls/library/pkcs5.o
 .debug_line    0x00028e27      0x555 obj_emsk_22/gnu_arcem7d/middleware/mbedtls/library/gcm.o
 .debug_line    0x0002937c      0x3a9 obj_emsk_22/gnu_arcem7d/middleware/mbedtls/library/sha256.o
 .debug_line    0x00029725     0x1004 obj_emsk_22/gnu_arcem7d/middleware/mbedtls/library/ssl_srv.o
 .debug_line    0x0002a729      0x480 obj_emsk_22/gnu_arcem7d/middleware/mbedtls/library/ecdsa.o
 .debug_line    0x0002aba9      0x2a9 obj_emsk_22/gnu_arcem7d/middleware/mbedtls/library/md_wrap.o
 .debug_line    0x0002ae52      0x4d1 obj_emsk_22/gnu_arcem7d/middleware/mbedtls/library/hmac_drbg.o
 .debug_line    0x0002b323      0x1ba obj_emsk_22/gnu_arcem7d/middleware/u8glib/csrc/u8g_com_embarc_ssd1306_i2c.o
 .debug_line    0x0002b4dd      0x13c obj_emsk_22/gnu_arcem7d/middleware/u8glib/csrc/u8g_com_api.o
 .debug_line    0x0002b619       0xf8 obj_emsk_22/gnu_arcem7d/middleware/u8glib/csrc/u8g_page.o
 .debug_line    0x0002b711      0xd46 obj_emsk_22/gnu_arcem7d/middleware/lwip/src/api/api_msg.o
 .debug_line    0x0002c457      0x415 obj_emsk_22/gnu_arcem7d/middleware/mbedtls/library/ripemd160.o
 .debug_line    0x0002c86c      0x5d8 obj_emsk_22/gnu_arcem7d/middleware/mbedtls/library/camellia.o
 .debug_line    0x0002ce44      0x4bd obj_emsk_22/gnu_arcem7d/middleware/mbedtls/library/asn1write.o
 .debug_line    0x0002d301      0x381 obj_emsk_22/gnu_arcem7d/middleware/mbedtls/library/blowfish.o
 .debug_line    0x0002d682      0x1b4 obj_emsk_22/gnu_arcem7d/library/clib/embarc_sbrk.o
 .debug_line    0x0002d836      0x66f obj_emsk_22/gnu_arcem7d/library/clib/embarc_syscalls.o
 .debug_line    0x0002dea5      0x197 obj_emsk_22/gnu_arcem7d/library/clib/embarc_target.o

.debug_str      0x00000000    0x1b0e2
 .debug_str     0x00000000      0x9d0 obj_emsk_22/gnu_arcem7d/application/./Source/main.o
                                0xba4 (size before relaxing)
 .debug_str     0x000009d0      0x8c7 obj_emsk_22/gnu_arcem7d/board/board.o
                               0x15be (size before relaxing)
 .debug_str     0x00001297      0x13b obj_emsk_22/gnu_arcem7d/arc/startup/arc_cxx_support.o
                                0x243 (size before relaxing)
 .debug_str     0x000013d2       0x1d obj_emsk_22/gnu_arcem7d/arc/startup/arc_startup.o
                                 0x3b (size before relaxing)
 .debug_str     0x000013ef       0x3e obj_emsk_22/gnu_arcem7d/board/emsk/common/emsk_init.o
                                0x573 (size before relaxing)
 .debug_str     0x0000142d      0x1e4 obj_emsk_22/gnu_arcem7d/board/emsk/drivers/mux/mux.o
                                0x725 (size before relaxing)
 .debug_str     0x00001611      0xb32 obj_emsk_22/gnu_arcem7d/board/emsk/drivers/pmwifi/pmwifi.o
                               0x18c1 (size before relaxing)
 .debug_str     0x00002143      0x15f obj_emsk_22/gnu_arcem7d/middleware/common/console_io.o
                                0xb9c (size before relaxing)
 .debug_str     0x000022a2       0xb3 obj_emsk_22/gnu_arcem7d/middleware/common/xprintf/xprintf.o
                                0x227 (size before relaxing)
 .debug_str     0x00002355      0x3dd obj_emsk_22/gnu_arcem7d/middleware/fatfs/src/ff.o
                                0x7db (size before relaxing)
 .debug_str     0x00002732       0x66 obj_emsk_22/gnu_arcem7d/middleware/fatfs/src/ff_unicode.o
                                0x21e (size before relaxing)
 .debug_str     0x00002798      0x38b obj_emsk_22/gnu_arcem7d/middleware/lwip-contrib/ports/arc/lwip_pmwifi.o
                               0x15c1 (size before relaxing)
 .debug_str     0x00002b23      0x287 obj_emsk_22/gnu_arcem7d/middleware/lwip-contrib/ports/arc/netif/pmwifi_netif.o
                               0x11a8 (size before relaxing)
 .debug_str     0x00002daa      0x21c obj_emsk_22/gnu_arcem7d/middleware/lwip-contrib/ports/arc/sys_arch/freertos/sys_arch.o
                                0xaf8 (size before relaxing)
 .debug_str     0x00002fc6       0x5f obj_emsk_22/gnu_arcem7d/middleware/vending-machine/source/led_task.o
                                0xa40 (size before relaxing)
 .debug_str     0x00003025       0x98 obj_emsk_22/gnu_arcem7d/middleware/vending-machine/source/temp_task.o
                                0xada (size before relaxing)
 .debug_str     0x000030bd       0x51 obj_emsk_22/gnu_arcem7d/middleware/vending-machine/source/vm_task.o
                                0xa9e (size before relaxing)
 .debug_str     0x0000310e     0x369f obj_emsk_22/gnu_arcem7d/middleware/vending-machine/source/oled_task.o
                               0x41a8 (size before relaxing)
 .debug_str     0x000067ad      0x11f obj_emsk_22/gnu_arcem7d/middleware/vending-machine/source/numpad_task.o
                                0xba8 (size before relaxing)
 .debug_str     0x000068cc     0x1a6e obj_emsk_22/gnu_arcem7d/middleware/vending-machine/source/communication_task.o
                               0x2835 (size before relaxing)
 .debug_str     0x0000833a       0x63 obj_emsk_22/gnu_arcem7d/os/freertos/portable/synopsys/arc/arc_freertos_exceptions.o
                                0xa2a (size before relaxing)
 .debug_str     0x0000839d      0xb7c obj_emsk_22/gnu_arcem7d/os/freertos/tasks.o
                               0x11bc (size before relaxing)
 .debug_str     0x00008f19       0xbc obj_emsk_22/gnu_arcem7d/os/freertos/list.o
                                0x6e1 (size before relaxing)
 .debug_str     0x00008fd5      0x3e2 obj_emsk_22/gnu_arcem7d/os/freertos/queue.o
                                0xafb (size before relaxing)
 .debug_str     0x000093b7       0x68 obj_emsk_22/gnu_arcem7d/arc/arc_timer.o
                                0x22c (size before relaxing)
 .debug_str     0x0000941f      0x1ff obj_emsk_22/gnu_arcem7d/arc/arc_cache.o
                                0x438 (size before relaxing)
 .debug_str     0x0000961e      0x304 obj_emsk_22/gnu_arcem7d/arc/arc_exception.o
                                0x5ea (size before relaxing)
 .debug_str     0x00009922        0xe obj_emsk_22/gnu_arcem7d/arc/arc_exc_asm.o
                                 0x3b (size before relaxing)
 .debug_str     0x00009930       0x41 obj_emsk_22/gnu_arcem7d/library/clib/embarc_misc.o
                                0x61a (size before relaxing)
 .debug_str     0x00009971      0x3a2 obj_emsk_22/gnu_arcem7d/board/emsk/drivers/ip/designware/gpio/dw_gpio_obj.o
                                0xa21 (size before relaxing)
 .debug_str     0x00009d13      0x2bc obj_emsk_22/gnu_arcem7d/board/emsk/drivers/ip/designware/uart/dw_uart_obj.o
                                0x942 (size before relaxing)
 .debug_str     0x00009fcf      0x316 obj_emsk_22/gnu_arcem7d/device/ip/designware/gpio/dw_gpio.o
                                0x8e0 (size before relaxing)
 .debug_str     0x0000a2e5      0x3a9 obj_emsk_22/gnu_arcem7d/device/ip/designware/uart/dw_uart.o
                                0xcc7 (size before relaxing)
 .debug_str     0x0000a68e      0x3af obj_emsk_22/gnu_arcem7d/device/peripheral/sensor/temperature/adt7420/adt7420.o
                                0xa23 (size before relaxing)
 .debug_str     0x0000aa3d      0x657 obj_emsk_22/gnu_arcem7d/device/peripheral/wifi/rw009/rw009.o
                               0x1bc8 (size before relaxing)
 .debug_str     0x0000b094       0xd1 obj_emsk_22/gnu_arcem7d/board/emsk/common/emsk_gpio.o
                                0x83b (size before relaxing)
 .debug_str     0x0000b165      0x117 obj_emsk_22/gnu_arcem7d/board/emsk/common/emsk_timer.o
                                0xa54 (size before relaxing)
 .debug_str     0x0000b27c       0x8c obj_emsk_22/gnu_arcem7d/board/emsk/drivers/sdcard/emsk_sdcard.o
                                0x712 (size before relaxing)
 .debug_str     0x0000b308       0x77 obj_emsk_22/gnu_arcem7d/middleware/fatfs/src/diskio.o
                                0x31e (size before relaxing)
 .debug_str     0x0000b37f      0x628 obj_emsk_22/gnu_arcem7d/middleware/lwip/src/core/pbuf.o
                               0x12f3 (size before relaxing)
 .debug_str     0x0000b9a7      0x347 obj_emsk_22/gnu_arcem7d/middleware/lwip/src/core/dns.o
                                0xec6 (size before relaxing)
 .debug_str     0x0000bcee       0xbd obj_emsk_22/gnu_arcem7d/middleware/lwip/src/core/mem.o
                                0x944 (size before relaxing)
 .debug_str     0x0000bdab      0x208 obj_emsk_22/gnu_arcem7d/middleware/lwip/src/core/udp.o
                                0xd43 (size before relaxing)
 .debug_str     0x0000bfb3       0xc3 obj_emsk_22/gnu_arcem7d/middleware/lwip/src/core/def.o
                                0x6af (size before relaxing)
 .debug_str     0x0000c076      0x410 obj_emsk_22/gnu_arcem7d/middleware/lwip/src/core/tcp.o
                               0x1275 (size before relaxing)
 .debug_str     0x0000c486      0x15e obj_emsk_22/gnu_arcem7d/middleware/lwip/src/core/netif.o
                                0xfe3 (size before relaxing)
 .debug_str     0x0000c5e4      0x15e obj_emsk_22/gnu_arcem7d/middleware/lwip/src/core/timeouts.o
                                0xfde (size before relaxing)
 .debug_str     0x0000c742      0x1b3 obj_emsk_22/gnu_arcem7d/middleware/lwip/src/core/tcp_in.o
                                0xfd1 (size before relaxing)
 .debug_str     0x0000c8f5      0x44b obj_emsk_22/gnu_arcem7d/middleware/lwip/src/core/memp.o
                               0x12ed (size before relaxing)
 .debug_str     0x0000cd40      0x120 obj_emsk_22/gnu_arcem7d/middleware/lwip/src/core/inet_chksum.o
                                0x7c0 (size before relaxing)
 .debug_str     0x0000ce60       0xd7 obj_emsk_22/gnu_arcem7d/middleware/lwip/src/core/ipv4/icmp.o
                                0xab5 (size before relaxing)
 .debug_str     0x0000cf37       0xc3 obj_emsk_22/gnu_arcem7d/middleware/lwip/src/core/ipv4/ip4.o
                                0xf39 (size before relaxing)
 .debug_str     0x0000cffa       0xb6 obj_emsk_22/gnu_arcem7d/middleware/lwip/src/core/ipv4/ip4_addr.o
                                0x98c (size before relaxing)
 .debug_str     0x0000d0b0      0x344 obj_emsk_22/gnu_arcem7d/middleware/lwip/src/core/ipv4/etharp.o
                                0xf91 (size before relaxing)
 .debug_str     0x0000d3f4      0x5ea obj_emsk_22/gnu_arcem7d/middleware/lwip/src/core/ipv4/dhcp.o
                               0x119b (size before relaxing)
 .debug_str     0x0000d9de      0x293 obj_emsk_22/gnu_arcem7d/middleware/lwip/src/core/ipv4/ip4_frag.o
                                0xde2 (size before relaxing)
 .debug_str     0x0000dc71       0x96 obj_emsk_22/gnu_arcem7d/middleware/lwip/src/netif/ethernet.o
                                0xbf1 (size before relaxing)
 .debug_str     0x0000dd07      0x1fe obj_emsk_22/gnu_arcem7d/middleware/lwip/src/api/tcpip.o
                                0xdc5 (size before relaxing)
 .debug_str     0x0000df05      0x2d1 obj_emsk_22/gnu_arcem7d/middleware/mbedtls/library/ctr_drbg.o
                                0xa44 (size before relaxing)
 .debug_str     0x0000e1d6      0x72a obj_emsk_22/gnu_arcem7d/middleware/mbedtls/library/x509_crt.o
                               0x19bf (size before relaxing)
 .debug_str     0x0000e900      0x2ef obj_emsk_22/gnu_arcem7d/middleware/mbedtls/library/x509.o
                               0x1694 (size before relaxing)
 .debug_str     0x0000ebef      0x1aa obj_emsk_22/gnu_arcem7d/middleware/mbedtls/library/ssl_ciphersuites.o
                               0x11d7 (size before relaxing)
 .debug_str     0x0000ed99       0x38 obj_emsk_22/gnu_arcem7d/middleware/mbedtls/library/certs.o
                                0x628 (size before relaxing)
 .debug_str     0x0000edd1       0x71 obj_emsk_22/gnu_arcem7d/middleware/mbedtls/library/threading.o
                                0x6ff (size before relaxing)
 .debug_str     0x0000ee42      0x36b obj_emsk_22/gnu_arcem7d/middleware/mbedtls/library/pk.o
                                0xc82 (size before relaxing)
 .debug_str     0x0000f1ad      0x18e obj_emsk_22/gnu_arcem7d/middleware/mbedtls/library/asn1parse.o
                                0x7d9 (size before relaxing)
 .debug_str     0x0000f33b      0x3e0 obj_emsk_22/gnu_arcem7d/middleware/mbedtls/library/rsa.o
                                0xc37 (size before relaxing)
 .debug_str     0x0000f71b      0x3e2 obj_emsk_22/gnu_arcem7d/middleware/mbedtls/library/oid.o
                               0x130a (size before relaxing)
 .debug_str     0x0000fafd      0x13c obj_emsk_22/gnu_arcem7d/middleware/mbedtls/library/sha1.o
                                0x74c (size before relaxing)
 .debug_str     0x0000fc39      0x218 obj_emsk_22/gnu_arcem7d/middleware/mbedtls/library/pkparse.o
                               0x1283 (size before relaxing)
 .debug_str     0x0000fe51     0x1be2 obj_emsk_22/gnu_arcem7d/middleware/mbedtls/library/ssl_tls.o
                               0x3921 (size before relaxing)
 .debug_str     0x00011a33      0x1a0 obj_emsk_22/gnu_arcem7d/middleware/mbedtls/library/dhm.o
                                0x7fd (size before relaxing)
 .debug_str     0x00011bd3      0x4f3 obj_emsk_22/gnu_arcem7d/middleware/mbedtls/library/cipher.o
                               0x134c (size before relaxing)
 .debug_str     0x000120c6      0x14f obj_emsk_22/gnu_arcem7d/middleware/mbedtls/library/sha512.o
                                0x779 (size before relaxing)
 .debug_str     0x00012215      0x170 obj_emsk_22/gnu_arcem7d/middleware/mbedtls/library/entropy.o
                                0x973 (size before relaxing)
 .debug_str     0x00012385      0x269 obj_emsk_22/gnu_arcem7d/middleware/mbedtls/library/aes.o
                                0x86c (size before relaxing)
 .debug_str     0x000125ee      0x137 obj_emsk_22/gnu_arcem7d/middleware/mbedtls/library/debug.o
                               0x1505 (size before relaxing)
 .debug_str     0x00012725       0x89 obj_emsk_22/gnu_arcem7d/middleware/mbedtls/library/havege.o
                                0x649 (size before relaxing)
 .debug_str     0x000127ae       0x6a obj_emsk_22/gnu_arcem7d/middleware/mbedtls/library/entropy_poll.o
                                0x725 (size before relaxing)
 .debug_str     0x00012818       0x51 obj_emsk_22/gnu_arcem7d/middleware/mbedtls/library/error.o
                                0x789 (size before relaxing)
 .debug_str     0x00012869      0x173 obj_emsk_22/gnu_arcem7d/middleware/mbedtls/library/pem.o
                                0xd66 (size before relaxing)
 .debug_str     0x000129dc      0x149 obj_emsk_22/gnu_arcem7d/middleware/mbedtls/library/pkcs12.o
                                0xfa6 (size before relaxing)
 .debug_str     0x00012b25       0xb9 obj_emsk_22/gnu_arcem7d/middleware/mbedtls/embarc/threading_alt.o
                                0x747 (size before relaxing)
 .debug_str     0x00012bde       0xe2 obj_emsk_22/gnu_arcem7d/middleware/mbedtls/embarc/timing_alt.o
                                0xb23 (size before relaxing)
 .debug_str     0x00012cc0      0x2da obj_emsk_22/gnu_arcem7d/middleware/mbedtls/embarc/net_alt.o
                                0xb3a (size before relaxing)
 .debug_str     0x00012f9a      0x17b obj_emsk_22/gnu_arcem7d/middleware/u8glib/csrc/u8g_com_embarc_ssd1306_spi.o
                               0x454d (size before relaxing)
 .debug_str     0x00013115      0x191 obj_emsk_22/gnu_arcem7d/middleware/u8glib/csrc/u8g_dev_embarc_ssd1306_128x64.o
                               0x391e (size before relaxing)
 .debug_str     0x000132a6       0xdd obj_emsk_22/gnu_arcem7d/middleware/u8glib/csrc/u8g_pb.o
                               0x38bb (size before relaxing)
 .debug_str     0x00013383       0xd7 obj_emsk_22/gnu_arcem7d/middleware/u8glib/csrc/u8g_pb16v1.o
                               0x3c94 (size before relaxing)
 .debug_str     0x0001345a      0x74e obj_emsk_22/gnu_arcem7d/middleware/u8glib/csrc/u8g_font.o
                               0x3f12 (size before relaxing)
 .debug_str     0x00013ba8       0xb3 obj_emsk_22/gnu_arcem7d/middleware/u8glib/csrc/u8g_pb8v1.o
                               0x3c74 (size before relaxing)
 .debug_str     0x00013c5b       0xb9 obj_emsk_22/gnu_arcem7d/middleware/u8glib/csrc/u8g_rect.o
                               0x382d (size before relaxing)
 .debug_str     0x00013d14      0x2e2 obj_emsk_22/gnu_arcem7d/middleware/u8glib/csrc/u8g_ll_api.o
                               0x3a7d (size before relaxing)
 .debug_str     0x00013ff6       0x62 obj_emsk_22/gnu_arcem7d/middleware/u8glib/csrc/u8g_delay.o
                               0x4037 (size before relaxing)
 .debug_str     0x00014058       0x6f obj_emsk_22/gnu_arcem7d/middleware/u8glib/csrc/u8g_clip.o
                               0x37e3 (size before relaxing)
 .debug_str     0x000140c7       0x51 obj_emsk_22/gnu_arcem7d/middleware/u8glib/csrc/u8g_line.o
                               0x37cf (size before relaxing)
 .debug_str     0x00014118       0x7a obj_emsk_22/gnu_arcem7d/middleware/u8glib/csrc/u8g_state.o
                               0x37ee (size before relaxing)
 .debug_str     0x00014192       0xb8 obj_emsk_22/gnu_arcem7d/middleware/u8glib/csrc/u8g_circle.o
                               0x383d (size before relaxing)
 .debug_str     0x0001424a       0x3f obj_emsk_22/gnu_arcem7d/middleware/u8glib/fntsrc/u8g_font_gdr30.o
                               0x37b3 (size before relaxing)
 .debug_str     0x00014289       0x3f obj_emsk_22/gnu_arcem7d/middleware/u8glib/fntsrc/u8g_font_gdr20.o
                               0x37b3 (size before relaxing)
 .debug_str     0x000142c8       0x3e obj_emsk_22/gnu_arcem7d/middleware/u8glib/fntsrc/u8g_font_6x10.o
                               0x37b2 (size before relaxing)
 .debug_str     0x00014306       0xed obj_emsk_22/gnu_arcem7d/os/freertos/portable/synopsys/arc/port.o
                                0xa6f (size before relaxing)
 .debug_str     0x000143f3      0x160 obj_emsk_22/gnu_arcem7d/os/freertos/portable/heap_sel.o
                                0x73a (size before relaxing)
 .debug_str     0x00014553       0x45 obj_emsk_22/gnu_arcem7d/os/freertos/portable/synopsys/arc/arc_support.o
                                 0x72 (size before relaxing)
 .debug_str     0x00014598       0x4a obj_emsk_22/gnu_arcem7d/library/clib/fatfs_dirent.o
                                0xcb3 (size before relaxing)
 .debug_str     0x000145e2      0x5ee obj_emsk_22/gnu_arcem7d/board/emsk/drivers/ip/designware/iic/dw_iic_obj.o
                                0xcc5 (size before relaxing)
 .debug_str     0x00014bd0      0x301 obj_emsk_22/gnu_arcem7d/board/emsk/drivers/ip/designware/spi/dw_spi_obj.o
                                0xadb (size before relaxing)
 .debug_str     0x00014ed1      0x66d obj_emsk_22/gnu_arcem7d/device/ip/designware/iic/dw_iic.o
                               0x137a (size before relaxing)
 .debug_str     0x0001553e      0x45e obj_emsk_22/gnu_arcem7d/device/ip/designware/spi/dw_spi.o
                               0x12a0 (size before relaxing)
 .debug_str     0x0001599c      0x189 obj_emsk_22/gnu_arcem7d/board/emsk/drivers/sdcard/emsk_sdcard_spi.o
                                0xbb8 (size before relaxing)
 .debug_str     0x00015b25      0x1a9 obj_emsk_22/gnu_arcem7d/middleware/fatfs/src/diskdrv/ff_sdcard_spi.o
                                0x671 (size before relaxing)
 .debug_str     0x00015cce      0x1ea obj_emsk_22/gnu_arcem7d/middleware/lwip/src/core/tcp_out.o
                               0x1041 (size before relaxing)
 .debug_str     0x00015eb8       0xfd obj_emsk_22/gnu_arcem7d/middleware/lwip/src/core/raw.o
                                0xc11 (size before relaxing)
 .debug_str     0x00015fb5       0x33 obj_emsk_22/gnu_arcem7d/middleware/lwip/src/core/ip.o
                                0x9b6 (size before relaxing)
 .debug_str     0x00015fe8       0x3f obj_emsk_22/gnu_arcem7d/middleware/lwip/src/core/init.o
                                0xd13 (size before relaxing)
 .debug_str     0x00016027      0x603 obj_emsk_22/gnu_arcem7d/middleware/lwip/src/api/sockets.o
                               0x16fb (size before relaxing)
 .debug_str     0x0001662a       0x6a obj_emsk_22/gnu_arcem7d/middleware/lwip/src/api/err.o
                                0x693 (size before relaxing)
 .debug_str     0x00016694       0xaa obj_emsk_22/gnu_arcem7d/middleware/lwip/src/api/netbuf.o
                                0x947 (size before relaxing)
 .debug_str     0x0001673e      0x201 obj_emsk_22/gnu_arcem7d/middleware/lwip/src/api/api_lib.o
                               0x1315 (size before relaxing)
 .debug_str     0x0001693f      0x13d obj_emsk_22/gnu_arcem7d/middleware/lwip/src/api/netdb.o
                                0xb76 (size before relaxing)
 .debug_str     0x00016a7c      0x4e0 obj_emsk_22/gnu_arcem7d/middleware/mbedtls/library/bignum.o
                                0xb2f (size before relaxing)
 .debug_str     0x00016f5c      0x56e obj_emsk_22/gnu_arcem7d/middleware/mbedtls/library/ssl_cli.o
                               0x28b4 (size before relaxing)
 .debug_str     0x000174ca      0x249 obj_emsk_22/gnu_arcem7d/middleware/mbedtls/library/pk_wrap.o
                                0xe62 (size before relaxing)
 .debug_str     0x00017713       0xbc obj_emsk_22/gnu_arcem7d/middleware/mbedtls/library/base64.o
                                0x679 (size before relaxing)
 .debug_str     0x000177cf      0x2d2 obj_emsk_22/gnu_arcem7d/middleware/mbedtls/library/md.o
                                0x9dc (size before relaxing)
 .debug_str     0x00017aa1       0xe2 obj_emsk_22/gnu_arcem7d/middleware/mbedtls/library/ccm.o
                                0xf26 (size before relaxing)
 .debug_str     0x00017b83      0x4b7 obj_emsk_22/gnu_arcem7d/middleware/mbedtls/library/ecp_curves.o
                                0xc23 (size before relaxing)
 .debug_str     0x0001803a       0xc5 obj_emsk_22/gnu_arcem7d/middleware/mbedtls/library/arc4.o
                                0x6a2 (size before relaxing)
 .debug_str     0x000180ff      0x5a3 obj_emsk_22/gnu_arcem7d/middleware/mbedtls/library/ecp.o
                                0xdee (size before relaxing)
 .debug_str     0x000186a2      0x145 obj_emsk_22/gnu_arcem7d/middleware/mbedtls/library/ecdh.o
                                0x8fa (size before relaxing)
 .debug_str     0x000187e7      0x8a5 obj_emsk_22/gnu_arcem7d/middleware/mbedtls/library/cipher_wrap.o
                               0x1844 (size before relaxing)
 .debug_str     0x0001908c      0x299 obj_emsk_22/gnu_arcem7d/middleware/mbedtls/library/des.o
                                0x89c (size before relaxing)
 .debug_str     0x00019325      0x103 obj_emsk_22/gnu_arcem7d/middleware/mbedtls/library/md5.o
                                0x72b (size before relaxing)
 .debug_str     0x00019428      0x12d obj_emsk_22/gnu_arcem7d/middleware/mbedtls/library/pkcs5.o
                               0x10c7 (size before relaxing)
 .debug_str     0x00019555      0x160 obj_emsk_22/gnu_arcem7d/middleware/mbedtls/library/gcm.o
                               0x1007 (size before relaxing)
 .debug_str     0x000196b5      0x143 obj_emsk_22/gnu_arcem7d/middleware/mbedtls/library/sha256.o
                                0x779 (size before relaxing)
 .debug_str     0x000197f8      0x3f8 obj_emsk_22/gnu_arcem7d/middleware/mbedtls/library/ssl_srv.o
                               0x2a11 (size before relaxing)
 .debug_str     0x00019bf0      0x19f obj_emsk_22/gnu_arcem7d/middleware/mbedtls/library/ecdsa.o
                                0xb86 (size before relaxing)
 .debug_str     0x00019d8f      0x31c obj_emsk_22/gnu_arcem7d/middleware/mbedtls/library/md_wrap.o
                                0xb33 (size before relaxing)
 .debug_str     0x0001a0ab      0x219 obj_emsk_22/gnu_arcem7d/middleware/mbedtls/library/hmac_drbg.o
                                0xabd (size before relaxing)
 .debug_str     0x0001a2c4       0x98 obj_emsk_22/gnu_arcem7d/middleware/u8glib/csrc/u8g_com_embarc_ssd1306_i2c.o
                               0x3c49 (size before relaxing)
 .debug_str     0x0001a35c       0xf9 obj_emsk_22/gnu_arcem7d/middleware/u8glib/csrc/u8g_com_api.o
                               0x387b (size before relaxing)
 .debug_str     0x0001a455       0x62 obj_emsk_22/gnu_arcem7d/middleware/u8glib/csrc/u8g_page.o
                               0x381b (size before relaxing)
 .debug_str     0x0001a4b7      0x2d6 obj_emsk_22/gnu_arcem7d/middleware/lwip/src/api/api_msg.o
                               0x1485 (size before relaxing)
 .debug_str     0x0001a78d      0x14e obj_emsk_22/gnu_arcem7d/middleware/mbedtls/library/ripemd160.o
                                0x769 (size before relaxing)
 .debug_str     0x0001a8db      0x28e obj_emsk_22/gnu_arcem7d/middleware/mbedtls/library/camellia.o
                                0x8b9 (size before relaxing)
 .debug_str     0x0001ab69      0x1eb obj_emsk_22/gnu_arcem7d/middleware/mbedtls/library/asn1write.o
                                0x803 (size before relaxing)
 .debug_str     0x0001ad54      0x113 obj_emsk_22/gnu_arcem7d/middleware/mbedtls/library/blowfish.o
                                0x709 (size before relaxing)
 .debug_str     0x0001ae67       0x6c obj_emsk_22/gnu_arcem7d/library/clib/embarc_sbrk.o
                                0x620 (size before relaxing)
 .debug_str     0x0001aed3      0x1ac obj_emsk_22/gnu_arcem7d/library/clib/embarc_syscalls.o
                               0x1139 (size before relaxing)
 .debug_str     0x0001b07f       0x63 obj_emsk_22/gnu_arcem7d/library/clib/embarc_target.o
                                0x663 (size before relaxing)

.comment        0x00000000       0x42
 .comment       0x00000000       0x42 obj_emsk_22/gnu_arcem7d/application/./Source/main.o
                                 0x43 (size before relaxing)
 .comment       0x00000042       0x43 obj_emsk_22/gnu_arcem7d/board/board.o
 .comment       0x00000042       0x43 obj_emsk_22/gnu_arcem7d/arc/startup/arc_cxx_support.o
 .comment       0x00000042       0x43 obj_emsk_22/gnu_arcem7d/board/emsk/common/emsk_init.o
 .comment       0x00000042       0x43 obj_emsk_22/gnu_arcem7d/board/emsk/drivers/mux/mux.o
 .comment       0x00000042       0x43 obj_emsk_22/gnu_arcem7d/board/emsk/drivers/pmwifi/pmwifi.o
 .comment       0x00000042       0x43 obj_emsk_22/gnu_arcem7d/middleware/common/console_io.o
 .comment       0x00000042       0x43 obj_emsk_22/gnu_arcem7d/middleware/common/xprintf/xprintf.o
 .comment       0x00000042       0x43 obj_emsk_22/gnu_arcem7d/middleware/fatfs/src/ff.o
 .comment       0x00000042       0x43 obj_emsk_22/gnu_arcem7d/middleware/fatfs/src/ff_unicode.o
 .comment       0x00000042       0x43 obj_emsk_22/gnu_arcem7d/middleware/lwip-contrib/ports/arc/lwip_pmwifi.o
 .comment       0x00000042       0x43 obj_emsk_22/gnu_arcem7d/middleware/lwip-contrib/ports/arc/netif/pmwifi_netif.o
 .comment       0x00000042       0x43 obj_emsk_22/gnu_arcem7d/middleware/lwip-contrib/ports/arc/sys_arch/freertos/sys_arch.o
 .comment       0x00000042       0x43 obj_emsk_22/gnu_arcem7d/middleware/vending-machine/source/led_task.o
 .comment       0x00000042       0x43 obj_emsk_22/gnu_arcem7d/middleware/vending-machine/source/temp_task.o
 .comment       0x00000042       0x43 obj_emsk_22/gnu_arcem7d/middleware/vending-machine/source/vm_task.o
 .comment       0x00000042       0x43 obj_emsk_22/gnu_arcem7d/middleware/vending-machine/source/oled_task.o
 .comment       0x00000042       0x43 obj_emsk_22/gnu_arcem7d/middleware/vending-machine/source/numpad_task.o
 .comment       0x00000042       0x43 obj_emsk_22/gnu_arcem7d/middleware/vending-machine/source/communication_task.o
 .comment       0x00000042       0x43 obj_emsk_22/gnu_arcem7d/os/freertos/portable/synopsys/arc/arc_freertos_exceptions.o
 .comment       0x00000042       0x43 obj_emsk_22/gnu_arcem7d/os/freertos/tasks.o
 .comment       0x00000042       0x43 obj_emsk_22/gnu_arcem7d/os/freertos/list.o
 .comment       0x00000042       0x43 obj_emsk_22/gnu_arcem7d/os/freertos/queue.o
 .comment       0x00000042       0x43 obj_emsk_22/gnu_arcem7d/arc/arc_timer.o
 .comment       0x00000042       0x43 obj_emsk_22/gnu_arcem7d/arc/arc_cache.o
 .comment       0x00000042       0x43 obj_emsk_22/gnu_arcem7d/arc/arc_exception.o
 .comment       0x00000042       0x43 obj_emsk_22/gnu_arcem7d/library/clib/embarc_misc.o
 .comment       0x00000042       0x43 obj_emsk_22/gnu_arcem7d/board/emsk/drivers/ip/designware/gpio/dw_gpio_obj.o
 .comment       0x00000042       0x43 obj_emsk_22/gnu_arcem7d/board/emsk/drivers/ip/designware/uart/dw_uart_obj.o
 .comment       0x00000042       0x43 obj_emsk_22/gnu_arcem7d/device/ip/designware/gpio/dw_gpio.o
 .comment       0x00000042       0x43 obj_emsk_22/gnu_arcem7d/device/ip/designware/uart/dw_uart.o
 .comment       0x00000042       0x43 obj_emsk_22/gnu_arcem7d/device/peripheral/sensor/temperature/adt7420/adt7420.o
 .comment       0x00000042       0x43 obj_emsk_22/gnu_arcem7d/device/peripheral/wifi/rw009/rw009.o
 .comment       0x00000042       0x43 obj_emsk_22/gnu_arcem7d/board/emsk/common/emsk_gpio.o
 .comment       0x00000042       0x43 obj_emsk_22/gnu_arcem7d/board/emsk/common/emsk_timer.o
 .comment       0x00000042       0x43 obj_emsk_22/gnu_arcem7d/board/emsk/drivers/sdcard/emsk_sdcard.o
 .comment       0x00000042       0x43 obj_emsk_22/gnu_arcem7d/middleware/fatfs/src/diskio.o
 .comment       0x00000042       0x43 obj_emsk_22/gnu_arcem7d/middleware/lwip/src/core/pbuf.o
 .comment       0x00000042       0x43 obj_emsk_22/gnu_arcem7d/middleware/lwip/src/core/dns.o
 .comment       0x00000042       0x43 obj_emsk_22/gnu_arcem7d/middleware/lwip/src/core/mem.o
 .comment       0x00000042       0x43 obj_emsk_22/gnu_arcem7d/middleware/lwip/src/core/udp.o
 .comment       0x00000042       0x43 obj_emsk_22/gnu_arcem7d/middleware/lwip/src/core/def.o
 .comment       0x00000042       0x43 obj_emsk_22/gnu_arcem7d/middleware/lwip/src/core/tcp.o
 .comment       0x00000042       0x43 obj_emsk_22/gnu_arcem7d/middleware/lwip/src/core/netif.o
 .comment       0x00000042       0x43 obj_emsk_22/gnu_arcem7d/middleware/lwip/src/core/timeouts.o
 .comment       0x00000042       0x43 obj_emsk_22/gnu_arcem7d/middleware/lwip/src/core/tcp_in.o
 .comment       0x00000042       0x43 obj_emsk_22/gnu_arcem7d/middleware/lwip/src/core/memp.o
 .comment       0x00000042       0x43 obj_emsk_22/gnu_arcem7d/middleware/lwip/src/core/inet_chksum.o
 .comment       0x00000042       0x43 obj_emsk_22/gnu_arcem7d/middleware/lwip/src/core/ipv4/icmp.o
 .comment       0x00000042       0x43 obj_emsk_22/gnu_arcem7d/middleware/lwip/src/core/ipv4/ip4.o
 .comment       0x00000042       0x43 obj_emsk_22/gnu_arcem7d/middleware/lwip/src/core/ipv4/ip4_addr.o
 .comment       0x00000042       0x43 obj_emsk_22/gnu_arcem7d/middleware/lwip/src/core/ipv4/etharp.o
 .comment       0x00000042       0x43 obj_emsk_22/gnu_arcem7d/middleware/lwip/src/core/ipv4/dhcp.o
 .comment       0x00000042       0x43 obj_emsk_22/gnu_arcem7d/middleware/lwip/src/core/ipv4/ip4_frag.o
 .comment       0x00000042       0x43 obj_emsk_22/gnu_arcem7d/middleware/lwip/src/netif/ethernet.o
 .comment       0x00000042       0x43 obj_emsk_22/gnu_arcem7d/middleware/lwip/src/api/tcpip.o
 .comment       0x00000042       0x43 obj_emsk_22/gnu_arcem7d/middleware/mbedtls/library/ctr_drbg.o
 .comment       0x00000042       0x43 obj_emsk_22/gnu_arcem7d/middleware/mbedtls/library/x509_crt.o
 .comment       0x00000042       0x43 obj_emsk_22/gnu_arcem7d/middleware/mbedtls/library/x509.o
 .comment       0x00000042       0x43 obj_emsk_22/gnu_arcem7d/middleware/mbedtls/library/ssl_ciphersuites.o
 .comment       0x00000042       0x43 obj_emsk_22/gnu_arcem7d/middleware/mbedtls/library/certs.o
 .comment       0x00000042       0x43 obj_emsk_22/gnu_arcem7d/middleware/mbedtls/library/threading.o
 .comment       0x00000042       0x43 obj_emsk_22/gnu_arcem7d/middleware/mbedtls/library/pk.o
 .comment       0x00000042       0x43 obj_emsk_22/gnu_arcem7d/middleware/mbedtls/library/asn1parse.o
 .comment       0x00000042       0x43 obj_emsk_22/gnu_arcem7d/middleware/mbedtls/library/rsa.o
 .comment       0x00000042       0x43 obj_emsk_22/gnu_arcem7d/middleware/mbedtls/library/oid.o
 .comment       0x00000042       0x43 obj_emsk_22/gnu_arcem7d/middleware/mbedtls/library/sha1.o
 .comment       0x00000042       0x43 obj_emsk_22/gnu_arcem7d/middleware/mbedtls/library/pkparse.o
 .comment       0x00000042       0x43 obj_emsk_22/gnu_arcem7d/middleware/mbedtls/library/ssl_tls.o
 .comment       0x00000042       0x43 obj_emsk_22/gnu_arcem7d/middleware/mbedtls/library/dhm.o
 .comment       0x00000042       0x43 obj_emsk_22/gnu_arcem7d/middleware/mbedtls/library/cipher.o
 .comment       0x00000042       0x43 obj_emsk_22/gnu_arcem7d/middleware/mbedtls/library/sha512.o
 .comment       0x00000042       0x43 obj_emsk_22/gnu_arcem7d/middleware/mbedtls/library/entropy.o
 .comment       0x00000042       0x43 obj_emsk_22/gnu_arcem7d/middleware/mbedtls/library/aes.o
 .comment       0x00000042       0x43 obj_emsk_22/gnu_arcem7d/middleware/mbedtls/library/debug.o
 .comment       0x00000042       0x43 obj_emsk_22/gnu_arcem7d/middleware/mbedtls/library/havege.o
 .comment       0x00000042       0x43 obj_emsk_22/gnu_arcem7d/middleware/mbedtls/library/entropy_poll.o
 .comment       0x00000042       0x43 obj_emsk_22/gnu_arcem7d/middleware/mbedtls/library/error.o
 .comment       0x00000042       0x43 obj_emsk_22/gnu_arcem7d/middleware/mbedtls/library/pem.o
 .comment       0x00000042       0x43 obj_emsk_22/gnu_arcem7d/middleware/mbedtls/library/pkcs12.o
 .comment       0x00000042       0x43 obj_emsk_22/gnu_arcem7d/middleware/mbedtls/embarc/threading_alt.o
 .comment       0x00000042       0x43 obj_emsk_22/gnu_arcem7d/middleware/mbedtls/embarc/timing_alt.o
 .comment       0x00000042       0x43 obj_emsk_22/gnu_arcem7d/middleware/mbedtls/embarc/net_alt.o
 .comment       0x00000042       0x43 obj_emsk_22/gnu_arcem7d/middleware/u8glib/csrc/u8g_com_embarc_ssd1306_spi.o
 .comment       0x00000042       0x43 obj_emsk_22/gnu_arcem7d/middleware/u8glib/csrc/u8g_dev_embarc_ssd1306_128x64.o
 .comment       0x00000042       0x43 obj_emsk_22/gnu_arcem7d/middleware/u8glib/csrc/u8g_pb.o
 .comment       0x00000042       0x43 obj_emsk_22/gnu_arcem7d/middleware/u8glib/csrc/u8g_pb16v1.o
 .comment       0x00000042       0x43 obj_emsk_22/gnu_arcem7d/middleware/u8glib/csrc/u8g_font.o
 .comment       0x00000042       0x43 obj_emsk_22/gnu_arcem7d/middleware/u8glib/csrc/u8g_pb8v1.o
 .comment       0x00000042       0x43 obj_emsk_22/gnu_arcem7d/middleware/u8glib/csrc/u8g_rect.o
 .comment       0x00000042       0x43 obj_emsk_22/gnu_arcem7d/middleware/u8glib/csrc/u8g_ll_api.o
 .comment       0x00000042       0x43 obj_emsk_22/gnu_arcem7d/middleware/u8glib/csrc/u8g_delay.o
 .comment       0x00000042       0x43 obj_emsk_22/gnu_arcem7d/middleware/u8glib/csrc/u8g_clip.o
 .comment       0x00000042       0x43 obj_emsk_22/gnu_arcem7d/middleware/u8glib/csrc/u8g_line.o
 .comment       0x00000042       0x43 obj_emsk_22/gnu_arcem7d/middleware/u8glib/csrc/u8g_state.o
 .comment       0x00000042       0x43 obj_emsk_22/gnu_arcem7d/middleware/u8glib/csrc/u8g_circle.o
 .comment       0x00000042       0x43 obj_emsk_22/gnu_arcem7d/middleware/u8glib/fntsrc/u8g_font_gdr30.o
 .comment       0x00000042       0x43 obj_emsk_22/gnu_arcem7d/middleware/u8glib/fntsrc/u8g_font_gdr20.o
 .comment       0x00000042       0x43 obj_emsk_22/gnu_arcem7d/middleware/u8glib/fntsrc/u8g_font_6x10.o
 .comment       0x00000042       0x43 obj_emsk_22/gnu_arcem7d/os/freertos/portable/synopsys/arc/port.o
 .comment       0x00000042       0x43 obj_emsk_22/gnu_arcem7d/os/freertos/portable/heap_sel.o
 .comment       0x00000042       0x43 obj_emsk_22/gnu_arcem7d/library/clib/fatfs_dirent.o
 .comment       0x00000042       0x43 obj_emsk_22/gnu_arcem7d/board/emsk/drivers/ip/designware/iic/dw_iic_obj.o
 .comment       0x00000042       0x43 obj_emsk_22/gnu_arcem7d/board/emsk/drivers/ip/designware/spi/dw_spi_obj.o
 .comment       0x00000042       0x43 obj_emsk_22/gnu_arcem7d/device/ip/designware/iic/dw_iic.o
 .comment       0x00000042       0x43 obj_emsk_22/gnu_arcem7d/device/ip/designware/spi/dw_spi.o
 .comment       0x00000042       0x43 obj_emsk_22/gnu_arcem7d/board/emsk/drivers/sdcard/emsk_sdcard_spi.o
 .comment       0x00000042       0x43 obj_emsk_22/gnu_arcem7d/middleware/fatfs/src/diskdrv/ff_sdcard_spi.o
 .comment       0x00000042       0x43 obj_emsk_22/gnu_arcem7d/middleware/lwip/src/core/tcp_out.o
 .comment       0x00000042       0x43 obj_emsk_22/gnu_arcem7d/middleware/lwip/src/core/raw.o
 .comment       0x00000042       0x43 obj_emsk_22/gnu_arcem7d/middleware/lwip/src/core/ip.o
 .comment       0x00000042       0x43 obj_emsk_22/gnu_arcem7d/middleware/lwip/src/core/init.o
 .comment       0x00000042       0x43 obj_emsk_22/gnu_arcem7d/middleware/lwip/src/api/sockets.o
 .comment       0x00000042       0x43 obj_emsk_22/gnu_arcem7d/middleware/lwip/src/api/err.o
 .comment       0x00000042       0x43 obj_emsk_22/gnu_arcem7d/middleware/lwip/src/api/netbuf.o
 .comment       0x00000042       0x43 obj_emsk_22/gnu_arcem7d/middleware/lwip/src/api/api_lib.o
 .comment       0x00000042       0x43 obj_emsk_22/gnu_arcem7d/middleware/lwip/src/api/netdb.o
 .comment       0x00000042       0x43 obj_emsk_22/gnu_arcem7d/middleware/mbedtls/library/bignum.o
 .comment       0x00000042       0x43 obj_emsk_22/gnu_arcem7d/middleware/mbedtls/library/ssl_cli.o
 .comment       0x00000042       0x43 obj_emsk_22/gnu_arcem7d/middleware/mbedtls/library/pk_wrap.o
 .comment       0x00000042       0x43 obj_emsk_22/gnu_arcem7d/middleware/mbedtls/library/base64.o
 .comment       0x00000042       0x43 obj_emsk_22/gnu_arcem7d/middleware/mbedtls/library/md.o
 .comment       0x00000042       0x43 obj_emsk_22/gnu_arcem7d/middleware/mbedtls/library/ccm.o
 .comment       0x00000042       0x43 obj_emsk_22/gnu_arcem7d/middleware/mbedtls/library/ecp_curves.o
 .comment       0x00000042       0x43 obj_emsk_22/gnu_arcem7d/middleware/mbedtls/library/arc4.o
 .comment       0x00000042       0x43 obj_emsk_22/gnu_arcem7d/middleware/mbedtls/library/ecp.o
 .comment       0x00000042       0x43 obj_emsk_22/gnu_arcem7d/middleware/mbedtls/library/ecdh.o
 .comment       0x00000042       0x43 obj_emsk_22/gnu_arcem7d/middleware/mbedtls/library/cipher_wrap.o
 .comment       0x00000042       0x43 obj_emsk_22/gnu_arcem7d/middleware/mbedtls/library/des.o
 .comment       0x00000042       0x43 obj_emsk_22/gnu_arcem7d/middleware/mbedtls/library/md5.o
 .comment       0x00000042       0x43 obj_emsk_22/gnu_arcem7d/middleware/mbedtls/library/pkcs5.o
 .comment       0x00000042       0x43 obj_emsk_22/gnu_arcem7d/middleware/mbedtls/library/gcm.o
 .comment       0x00000042       0x43 obj_emsk_22/gnu_arcem7d/middleware/mbedtls/library/sha256.o
 .comment       0x00000042       0x43 obj_emsk_22/gnu_arcem7d/middleware/mbedtls/library/ssl_srv.o
 .comment       0x00000042       0x43 obj_emsk_22/gnu_arcem7d/middleware/mbedtls/library/ecdsa.o
 .comment       0x00000042       0x43 obj_emsk_22/gnu_arcem7d/middleware/mbedtls/library/md_wrap.o
 .comment       0x00000042       0x43 obj_emsk_22/gnu_arcem7d/middleware/mbedtls/library/hmac_drbg.o
 .comment       0x00000042       0x43 obj_emsk_22/gnu_arcem7d/middleware/u8glib/csrc/u8g_com_embarc_ssd1306_i2c.o
 .comment       0x00000042       0x43 obj_emsk_22/gnu_arcem7d/middleware/u8glib/csrc/u8g_com_api.o
 .comment       0x00000042       0x43 obj_emsk_22/gnu_arcem7d/middleware/u8glib/csrc/u8g_page.o
 .comment       0x00000042       0x43 obj_emsk_22/gnu_arcem7d/middleware/lwip/src/api/api_msg.o
 .comment       0x00000042       0x43 obj_emsk_22/gnu_arcem7d/middleware/mbedtls/library/ripemd160.o
 .comment       0x00000042       0x43 obj_emsk_22/gnu_arcem7d/middleware/mbedtls/library/camellia.o
 .comment       0x00000042       0x43 obj_emsk_22/gnu_arcem7d/middleware/mbedtls/library/asn1write.o
 .comment       0x00000042       0x43 obj_emsk_22/gnu_arcem7d/middleware/mbedtls/library/blowfish.o
 .comment       0x00000042       0x43 obj_emsk_22/gnu_arcem7d/library/clib/embarc_sbrk.o
 .comment       0x00000042       0x43 obj_emsk_22/gnu_arcem7d/library/clib/embarc_syscalls.o
 .comment       0x00000042       0x43 obj_emsk_22/gnu_arcem7d/library/clib/embarc_target.o

.note.GNU-stack
                0x00000000        0x0
 .note.GNU-stack
                0x00000000        0x0 obj_emsk_22/gnu_arcem7d/application/./Source/main.o
 .note.GNU-stack
                0x00000000        0x0 obj_emsk_22/gnu_arcem7d/board/board.o
 .note.GNU-stack
                0x00000000        0x0 obj_emsk_22/gnu_arcem7d/arc/startup/arc_cxx_support.o
 .note.GNU-stack
                0x00000000        0x0 obj_emsk_22/gnu_arcem7d/board/emsk/common/emsk_init.o
 .note.GNU-stack
                0x00000000        0x0 obj_emsk_22/gnu_arcem7d/board/emsk/drivers/mux/mux.o
 .note.GNU-stack
                0x00000000        0x0 obj_emsk_22/gnu_arcem7d/board/emsk/drivers/pmwifi/pmwifi.o
 .note.GNU-stack
                0x00000000        0x0 obj_emsk_22/gnu_arcem7d/middleware/common/console_io.o
 .note.GNU-stack
                0x00000000        0x0 obj_emsk_22/gnu_arcem7d/middleware/common/xprintf/xprintf.o
 .note.GNU-stack
                0x00000000        0x0 obj_emsk_22/gnu_arcem7d/middleware/fatfs/src/ff.o
 .note.GNU-stack
                0x00000000        0x0 obj_emsk_22/gnu_arcem7d/middleware/fatfs/src/ff_unicode.o
 .note.GNU-stack
                0x00000000        0x0 obj_emsk_22/gnu_arcem7d/middleware/lwip-contrib/ports/arc/lwip_pmwifi.o
 .note.GNU-stack
                0x00000000        0x0 obj_emsk_22/gnu_arcem7d/middleware/lwip-contrib/ports/arc/netif/pmwifi_netif.o
 .note.GNU-stack
                0x00000000        0x0 obj_emsk_22/gnu_arcem7d/middleware/lwip-contrib/ports/arc/sys_arch/freertos/sys_arch.o
 .note.GNU-stack
                0x00000000        0x0 obj_emsk_22/gnu_arcem7d/middleware/vending-machine/source/led_task.o
 .note.GNU-stack
                0x00000000        0x0 obj_emsk_22/gnu_arcem7d/middleware/vending-machine/source/temp_task.o
 .note.GNU-stack
                0x00000000        0x0 obj_emsk_22/gnu_arcem7d/middleware/vending-machine/source/vm_task.o
 .note.GNU-stack
                0x00000000        0x0 obj_emsk_22/gnu_arcem7d/middleware/vending-machine/source/oled_task.o
 .note.GNU-stack
                0x00000000        0x0 obj_emsk_22/gnu_arcem7d/middleware/vending-machine/source/numpad_task.o
 .note.GNU-stack
                0x00000000        0x0 obj_emsk_22/gnu_arcem7d/middleware/vending-machine/source/communication_task.o
 .note.GNU-stack
                0x00000000        0x0 obj_emsk_22/gnu_arcem7d/os/freertos/portable/synopsys/arc/arc_freertos_exceptions.o
 .note.GNU-stack
                0x00000000        0x0 obj_emsk_22/gnu_arcem7d/os/freertos/tasks.o
 .note.GNU-stack
                0x00000000        0x0 obj_emsk_22/gnu_arcem7d/os/freertos/list.o
 .note.GNU-stack
                0x00000000        0x0 obj_emsk_22/gnu_arcem7d/os/freertos/queue.o
 .note.GNU-stack
                0x00000000        0x0 obj_emsk_22/gnu_arcem7d/arc/arc_timer.o
 .note.GNU-stack
                0x00000000        0x0 obj_emsk_22/gnu_arcem7d/arc/arc_cache.o
 .note.GNU-stack
                0x00000000        0x0 obj_emsk_22/gnu_arcem7d/arc/arc_exception.o
 .note.GNU-stack
                0x00000000        0x0 obj_emsk_22/gnu_arcem7d/library/clib/embarc_misc.o
 .note.GNU-stack
                0x00000000        0x0 obj_emsk_22/gnu_arcem7d/board/emsk/drivers/ip/designware/gpio/dw_gpio_obj.o
 .note.GNU-stack
                0x00000000        0x0 obj_emsk_22/gnu_arcem7d/board/emsk/drivers/ip/designware/uart/dw_uart_obj.o
 .note.GNU-stack
                0x00000000        0x0 obj_emsk_22/gnu_arcem7d/device/ip/designware/gpio/dw_gpio.o
 .note.GNU-stack
                0x00000000        0x0 obj_emsk_22/gnu_arcem7d/device/ip/designware/uart/dw_uart.o
 .note.GNU-stack
                0x00000000        0x0 obj_emsk_22/gnu_arcem7d/device/peripheral/sensor/temperature/adt7420/adt7420.o
 .note.GNU-stack
                0x00000000        0x0 obj_emsk_22/gnu_arcem7d/device/peripheral/wifi/rw009/rw009.o
 .note.GNU-stack
                0x00000000        0x0 obj_emsk_22/gnu_arcem7d/board/emsk/common/emsk_gpio.o
 .note.GNU-stack
                0x00000000        0x0 obj_emsk_22/gnu_arcem7d/board/emsk/common/emsk_timer.o
 .note.GNU-stack
                0x00000000        0x0 obj_emsk_22/gnu_arcem7d/board/emsk/drivers/sdcard/emsk_sdcard.o
 .note.GNU-stack
                0x00000000        0x0 obj_emsk_22/gnu_arcem7d/middleware/fatfs/src/diskio.o
 .note.GNU-stack
                0x00000000        0x0 obj_emsk_22/gnu_arcem7d/middleware/lwip/src/core/pbuf.o
 .note.GNU-stack
                0x00000000        0x0 obj_emsk_22/gnu_arcem7d/middleware/lwip/src/core/dns.o
 .note.GNU-stack
                0x00000000        0x0 obj_emsk_22/gnu_arcem7d/middleware/lwip/src/core/mem.o
 .note.GNU-stack
                0x00000000        0x0 obj_emsk_22/gnu_arcem7d/middleware/lwip/src/core/udp.o
 .note.GNU-stack
                0x00000000        0x0 obj_emsk_22/gnu_arcem7d/middleware/lwip/src/core/def.o
 .note.GNU-stack
                0x00000000        0x0 obj_emsk_22/gnu_arcem7d/middleware/lwip/src/core/tcp.o
 .note.GNU-stack
                0x00000000        0x0 obj_emsk_22/gnu_arcem7d/middleware/lwip/src/core/netif.o
 .note.GNU-stack
                0x00000000        0x0 obj_emsk_22/gnu_arcem7d/middleware/lwip/src/core/timeouts.o
 .note.GNU-stack
                0x00000000        0x0 obj_emsk_22/gnu_arcem7d/middleware/lwip/src/core/tcp_in.o
 .note.GNU-stack
                0x00000000        0x0 obj_emsk_22/gnu_arcem7d/middleware/lwip/src/core/memp.o
 .note.GNU-stack
                0x00000000        0x0 obj_emsk_22/gnu_arcem7d/middleware/lwip/src/core/inet_chksum.o
 .note.GNU-stack
                0x00000000        0x0 obj_emsk_22/gnu_arcem7d/middleware/lwip/src/core/ipv4/icmp.o
 .note.GNU-stack
                0x00000000        0x0 obj_emsk_22/gnu_arcem7d/middleware/lwip/src/core/ipv4/ip4.o
 .note.GNU-stack
                0x00000000        0x0 obj_emsk_22/gnu_arcem7d/middleware/lwip/src/core/ipv4/ip4_addr.o
 .note.GNU-stack
                0x00000000        0x0 obj_emsk_22/gnu_arcem7d/middleware/lwip/src/core/ipv4/etharp.o
 .note.GNU-stack
                0x00000000        0x0 obj_emsk_22/gnu_arcem7d/middleware/lwip/src/core/ipv4/dhcp.o
 .note.GNU-stack
                0x00000000        0x0 obj_emsk_22/gnu_arcem7d/middleware/lwip/src/core/ipv4/ip4_frag.o
 .note.GNU-stack
                0x00000000        0x0 obj_emsk_22/gnu_arcem7d/middleware/lwip/src/netif/ethernet.o
 .note.GNU-stack
                0x00000000        0x0 obj_emsk_22/gnu_arcem7d/middleware/lwip/src/api/tcpip.o
 .note.GNU-stack
                0x00000000        0x0 obj_emsk_22/gnu_arcem7d/middleware/mbedtls/library/ctr_drbg.o
 .note.GNU-stack
                0x00000000        0x0 obj_emsk_22/gnu_arcem7d/middleware/mbedtls/library/x509_crt.o
 .note.GNU-stack
                0x00000000        0x0 obj_emsk_22/gnu_arcem7d/middleware/mbedtls/library/x509.o
 .note.GNU-stack
                0x00000000        0x0 obj_emsk_22/gnu_arcem7d/middleware/mbedtls/library/ssl_ciphersuites.o
 .note.GNU-stack
                0x00000000        0x0 obj_emsk_22/gnu_arcem7d/middleware/mbedtls/library/certs.o
 .note.GNU-stack
                0x00000000        0x0 obj_emsk_22/gnu_arcem7d/middleware/mbedtls/library/threading.o
 .note.GNU-stack
                0x00000000        0x0 obj_emsk_22/gnu_arcem7d/middleware/mbedtls/library/pk.o
 .note.GNU-stack
                0x00000000        0x0 obj_emsk_22/gnu_arcem7d/middleware/mbedtls/library/asn1parse.o
 .note.GNU-stack
                0x00000000        0x0 obj_emsk_22/gnu_arcem7d/middleware/mbedtls/library/rsa.o
 .note.GNU-stack
                0x00000000        0x0 obj_emsk_22/gnu_arcem7d/middleware/mbedtls/library/oid.o
 .note.GNU-stack
                0x00000000        0x0 obj_emsk_22/gnu_arcem7d/middleware/mbedtls/library/sha1.o
 .note.GNU-stack
                0x00000000        0x0 obj_emsk_22/gnu_arcem7d/middleware/mbedtls/library/pkparse.o
 .note.GNU-stack
                0x00000000        0x0 obj_emsk_22/gnu_arcem7d/middleware/mbedtls/library/ssl_tls.o
 .note.GNU-stack
                0x00000000        0x0 obj_emsk_22/gnu_arcem7d/middleware/mbedtls/library/dhm.o
 .note.GNU-stack
                0x00000000        0x0 obj_emsk_22/gnu_arcem7d/middleware/mbedtls/library/cipher.o
 .note.GNU-stack
                0x00000000        0x0 obj_emsk_22/gnu_arcem7d/middleware/mbedtls/library/sha512.o
 .note.GNU-stack
                0x00000000        0x0 obj_emsk_22/gnu_arcem7d/middleware/mbedtls/library/entropy.o
 .note.GNU-stack
                0x00000000        0x0 obj_emsk_22/gnu_arcem7d/middleware/mbedtls/library/aes.o
 .note.GNU-stack
                0x00000000        0x0 obj_emsk_22/gnu_arcem7d/middleware/mbedtls/library/debug.o
 .note.GNU-stack
                0x00000000        0x0 obj_emsk_22/gnu_arcem7d/middleware/mbedtls/library/havege.o
 .note.GNU-stack
                0x00000000        0x0 obj_emsk_22/gnu_arcem7d/middleware/mbedtls/library/entropy_poll.o
 .note.GNU-stack
                0x00000000        0x0 obj_emsk_22/gnu_arcem7d/middleware/mbedtls/library/error.o
 .note.GNU-stack
                0x00000000        0x0 obj_emsk_22/gnu_arcem7d/middleware/mbedtls/library/pem.o
 .note.GNU-stack
                0x00000000        0x0 obj_emsk_22/gnu_arcem7d/middleware/mbedtls/library/pkcs12.o
 .note.GNU-stack
                0x00000000        0x0 obj_emsk_22/gnu_arcem7d/middleware/mbedtls/embarc/threading_alt.o
 .note.GNU-stack
                0x00000000        0x0 obj_emsk_22/gnu_arcem7d/middleware/mbedtls/embarc/timing_alt.o
 .note.GNU-stack
                0x00000000        0x0 obj_emsk_22/gnu_arcem7d/middleware/mbedtls/embarc/net_alt.o
 .note.GNU-stack
                0x00000000        0x0 obj_emsk_22/gnu_arcem7d/middleware/u8glib/csrc/u8g_com_embarc_ssd1306_spi.o
 .note.GNU-stack
                0x00000000        0x0 obj_emsk_22/gnu_arcem7d/middleware/u8glib/csrc/u8g_dev_embarc_ssd1306_128x64.o
 .note.GNU-stack
                0x00000000        0x0 obj_emsk_22/gnu_arcem7d/middleware/u8glib/csrc/u8g_pb.o
 .note.GNU-stack
                0x00000000        0x0 obj_emsk_22/gnu_arcem7d/middleware/u8glib/csrc/u8g_pb16v1.o
 .note.GNU-stack
                0x00000000        0x0 obj_emsk_22/gnu_arcem7d/middleware/u8glib/csrc/u8g_font.o
 .note.GNU-stack
                0x00000000        0x0 obj_emsk_22/gnu_arcem7d/middleware/u8glib/csrc/u8g_pb8v1.o
 .note.GNU-stack
                0x00000000        0x0 obj_emsk_22/gnu_arcem7d/middleware/u8glib/csrc/u8g_rect.o
 .note.GNU-stack
                0x00000000        0x0 obj_emsk_22/gnu_arcem7d/middleware/u8glib/csrc/u8g_ll_api.o
 .note.GNU-stack
                0x00000000        0x0 obj_emsk_22/gnu_arcem7d/middleware/u8glib/csrc/u8g_delay.o
 .note.GNU-stack
                0x00000000        0x0 obj_emsk_22/gnu_arcem7d/middleware/u8glib/csrc/u8g_clip.o
 .note.GNU-stack
                0x00000000        0x0 obj_emsk_22/gnu_arcem7d/middleware/u8glib/csrc/u8g_line.o
 .note.GNU-stack
                0x00000000        0x0 obj_emsk_22/gnu_arcem7d/middleware/u8glib/csrc/u8g_state.o
 .note.GNU-stack
                0x00000000        0x0 obj_emsk_22/gnu_arcem7d/middleware/u8glib/csrc/u8g_circle.o
 .note.GNU-stack
                0x00000000        0x0 obj_emsk_22/gnu_arcem7d/middleware/u8glib/fntsrc/u8g_font_gdr30.o
 .note.GNU-stack
                0x00000000        0x0 obj_emsk_22/gnu_arcem7d/middleware/u8glib/fntsrc/u8g_font_gdr20.o
 .note.GNU-stack
                0x00000000        0x0 obj_emsk_22/gnu_arcem7d/middleware/u8glib/fntsrc/u8g_font_6x10.o
 .note.GNU-stack
                0x00000000        0x0 obj_emsk_22/gnu_arcem7d/os/freertos/portable/synopsys/arc/port.o
 .note.GNU-stack
                0x00000000        0x0 obj_emsk_22/gnu_arcem7d/os/freertos/portable/heap_sel.o
 .note.GNU-stack
                0x00000000        0x0 obj_emsk_22/gnu_arcem7d/library/clib/fatfs_dirent.o
 .note.GNU-stack
                0x00000000        0x0 obj_emsk_22/gnu_arcem7d/board/emsk/drivers/ip/designware/iic/dw_iic_obj.o
 .note.GNU-stack
                0x00000000        0x0 obj_emsk_22/gnu_arcem7d/board/emsk/drivers/ip/designware/spi/dw_spi_obj.o
 .note.GNU-stack
                0x00000000        0x0 obj_emsk_22/gnu_arcem7d/device/ip/designware/iic/dw_iic.o
 .note.GNU-stack
                0x00000000        0x0 obj_emsk_22/gnu_arcem7d/device/ip/designware/spi/dw_spi.o
 .note.GNU-stack
                0x00000000        0x0 obj_emsk_22/gnu_arcem7d/board/emsk/drivers/sdcard/emsk_sdcard_spi.o
 .note.GNU-stack
                0x00000000        0x0 obj_emsk_22/gnu_arcem7d/middleware/fatfs/src/diskdrv/ff_sdcard_spi.o
 .note.GNU-stack
                0x00000000        0x0 obj_emsk_22/gnu_arcem7d/middleware/lwip/src/core/tcp_out.o
 .note.GNU-stack
                0x00000000        0x0 obj_emsk_22/gnu_arcem7d/middleware/lwip/src/core/raw.o
 .note.GNU-stack
                0x00000000        0x0 obj_emsk_22/gnu_arcem7d/middleware/lwip/src/core/ip.o
 .note.GNU-stack
                0x00000000        0x0 obj_emsk_22/gnu_arcem7d/middleware/lwip/src/core/init.o
 .note.GNU-stack
                0x00000000        0x0 obj_emsk_22/gnu_arcem7d/middleware/lwip/src/api/sockets.o
 .note.GNU-stack
                0x00000000        0x0 obj_emsk_22/gnu_arcem7d/middleware/lwip/src/api/err.o
 .note.GNU-stack
                0x00000000        0x0 obj_emsk_22/gnu_arcem7d/middleware/lwip/src/api/netbuf.o
 .note.GNU-stack
                0x00000000        0x0 obj_emsk_22/gnu_arcem7d/middleware/lwip/src/api/api_lib.o
 .note.GNU-stack
                0x00000000        0x0 obj_emsk_22/gnu_arcem7d/middleware/lwip/src/api/netdb.o
 .note.GNU-stack
                0x00000000        0x0 obj_emsk_22/gnu_arcem7d/middleware/mbedtls/library/bignum.o
 .note.GNU-stack
                0x00000000        0x0 obj_emsk_22/gnu_arcem7d/middleware/mbedtls/library/ssl_cli.o
 .note.GNU-stack
                0x00000000        0x0 obj_emsk_22/gnu_arcem7d/middleware/mbedtls/library/pk_wrap.o
 .note.GNU-stack
                0x00000000        0x0 obj_emsk_22/gnu_arcem7d/middleware/mbedtls/library/base64.o
 .note.GNU-stack
                0x00000000        0x0 obj_emsk_22/gnu_arcem7d/middleware/mbedtls/library/md.o
 .note.GNU-stack
                0x00000000        0x0 obj_emsk_22/gnu_arcem7d/middleware/mbedtls/library/ccm.o
 .note.GNU-stack
                0x00000000        0x0 obj_emsk_22/gnu_arcem7d/middleware/mbedtls/library/ecp_curves.o
 .note.GNU-stack
                0x00000000        0x0 obj_emsk_22/gnu_arcem7d/middleware/mbedtls/library/arc4.o
 .note.GNU-stack
                0x00000000        0x0 obj_emsk_22/gnu_arcem7d/middleware/mbedtls/library/ecp.o
 .note.GNU-stack
                0x00000000        0x0 obj_emsk_22/gnu_arcem7d/middleware/mbedtls/library/ecdh.o
 .note.GNU-stack
                0x00000000        0x0 obj_emsk_22/gnu_arcem7d/middleware/mbedtls/library/cipher_wrap.o
 .note.GNU-stack
                0x00000000        0x0 obj_emsk_22/gnu_arcem7d/middleware/mbedtls/library/des.o
 .note.GNU-stack
                0x00000000        0x0 obj_emsk_22/gnu_arcem7d/middleware/mbedtls/library/md5.o
 .note.GNU-stack
                0x00000000        0x0 obj_emsk_22/gnu_arcem7d/middleware/mbedtls/library/pkcs5.o
 .note.GNU-stack
                0x00000000        0x0 obj_emsk_22/gnu_arcem7d/middleware/mbedtls/library/gcm.o
 .note.GNU-stack
                0x00000000        0x0 obj_emsk_22/gnu_arcem7d/middleware/mbedtls/library/sha256.o
 .note.GNU-stack
                0x00000000        0x0 obj_emsk_22/gnu_arcem7d/middleware/mbedtls/library/ssl_srv.o
 .note.GNU-stack
                0x00000000        0x0 obj_emsk_22/gnu_arcem7d/middleware/mbedtls/library/ecdsa.o
 .note.GNU-stack
                0x00000000        0x0 obj_emsk_22/gnu_arcem7d/middleware/mbedtls/library/md_wrap.o
 .note.GNU-stack
                0x00000000        0x0 obj_emsk_22/gnu_arcem7d/middleware/mbedtls/library/hmac_drbg.o
 .note.GNU-stack
                0x00000000        0x0 obj_emsk_22/gnu_arcem7d/middleware/u8glib/csrc/u8g_com_embarc_ssd1306_i2c.o
 .note.GNU-stack
                0x00000000        0x0 obj_emsk_22/gnu_arcem7d/middleware/u8glib/csrc/u8g_com_api.o
 .note.GNU-stack
                0x00000000        0x0 obj_emsk_22/gnu_arcem7d/middleware/u8glib/csrc/u8g_page.o
 .note.GNU-stack
                0x00000000        0x0 obj_emsk_22/gnu_arcem7d/middleware/lwip/src/api/api_msg.o
 .note.GNU-stack
                0x00000000        0x0 obj_emsk_22/gnu_arcem7d/middleware/mbedtls/library/ripemd160.o
 .note.GNU-stack
                0x00000000        0x0 obj_emsk_22/gnu_arcem7d/middleware/mbedtls/library/camellia.o
 .note.GNU-stack
                0x00000000        0x0 obj_emsk_22/gnu_arcem7d/middleware/mbedtls/library/asn1write.o
 .note.GNU-stack
                0x00000000        0x0 obj_emsk_22/gnu_arcem7d/middleware/mbedtls/library/blowfish.o
 .note.GNU-stack
                0x00000000        0x0 d:/arc_gnu/bin/../lib/gcc/arc-elf32/7.1.1/../../../../arc-elf32/lib/em4_dmips\libc.a(lib_a-atoi.o)
 .note.GNU-stack
                0x00000000        0x0 d:/arc_gnu/bin/../lib/gcc/arc-elf32/7.1.1/../../../../arc-elf32/lib/em4_dmips\libc.a(lib_a-calloc.o)
 .note.GNU-stack
                0x00000000        0x0 d:/arc_gnu/bin/../lib/gcc/arc-elf32/7.1.1/../../../../arc-elf32/lib/em4_dmips\libc.a(lib_a-callocr.o)
 .note.GNU-stack
                0x00000000        0x0 d:/arc_gnu/bin/../lib/gcc/arc-elf32/7.1.1/../../../../arc-elf32/lib/em4_dmips\libc.a(lib_a-fclose.o)
 .note.GNU-stack
                0x00000000        0x0 d:/arc_gnu/bin/../lib/gcc/arc-elf32/7.1.1/../../../../arc-elf32/lib/em4_dmips\libc.a(lib_a-fflush.o)
 .note.GNU-stack
                0x00000000        0x0 d:/arc_gnu/bin/../lib/gcc/arc-elf32/7.1.1/../../../../arc-elf32/lib/em4_dmips\libc.a(lib_a-fgets.o)
 .note.GNU-stack
                0x00000000        0x0 d:/arc_gnu/bin/../lib/gcc/arc-elf32/7.1.1/../../../../arc-elf32/lib/em4_dmips\libc.a(lib_a-findfp.o)
 .note.GNU-stack
                0x00000000        0x0 d:/arc_gnu/bin/../lib/gcc/arc-elf32/7.1.1/../../../../arc-elf32/lib/em4_dmips\libc.a(lib_a-fopen.o)
 .note.GNU-stack
                0x00000000        0x0 d:/arc_gnu/bin/../lib/gcc/arc-elf32/7.1.1/../../../../arc-elf32/lib/em4_dmips\libc.a(lib_a-fprintf.o)
 .note.GNU-stack
                0x00000000        0x0 d:/arc_gnu/bin/../lib/gcc/arc-elf32/7.1.1/../../../../arc-elf32/lib/em4_dmips\libc.a(lib_a-fread.o)
 .note.GNU-stack
                0x00000000        0x0 d:/arc_gnu/bin/../lib/gcc/arc-elf32/7.1.1/../../../../arc-elf32/lib/em4_dmips\libc.a(lib_a-freer.o)
 .note.GNU-stack
                0x00000000        0x0 d:/arc_gnu/bin/../lib/gcc/arc-elf32/7.1.1/../../../../arc-elf32/lib/em4_dmips\libc.a(lib_a-fseek.o)
 .note.GNU-stack
                0x00000000        0x0 d:/arc_gnu/bin/../lib/gcc/arc-elf32/7.1.1/../../../../arc-elf32/lib/em4_dmips\libc.a(lib_a-fseeko.o)
 .note.GNU-stack
                0x00000000        0x0 d:/arc_gnu/bin/../lib/gcc/arc-elf32/7.1.1/../../../../arc-elf32/lib/em4_dmips\libc.a(lib_a-fstatr.o)
 .note.GNU-stack
                0x00000000        0x0 d:/arc_gnu/bin/../lib/gcc/arc-elf32/7.1.1/../../../../arc-elf32/lib/em4_dmips\libc.a(lib_a-ftell.o)
 .note.GNU-stack
                0x00000000        0x0 d:/arc_gnu/bin/../lib/gcc/arc-elf32/7.1.1/../../../../arc-elf32/lib/em4_dmips\libc.a(lib_a-ftello.o)
 .note.GNU-stack
                0x00000000        0x0 d:/arc_gnu/bin/../lib/gcc/arc-elf32/7.1.1/../../../../arc-elf32/lib/em4_dmips\libc.a(lib_a-fwalk.o)
 .note.GNU-stack
                0x00000000        0x0 d:/arc_gnu/bin/../lib/gcc/arc-elf32/7.1.1/../../../../arc-elf32/lib/em4_dmips\libc.a(lib_a-fwrite.o)
 .note.GNU-stack
                0x00000000        0x0 d:/arc_gnu/bin/../lib/gcc/arc-elf32/7.1.1/../../../../arc-elf32/lib/em4_dmips\libc.a(lib_a-gmtime.o)
 .note.GNU-stack
                0x00000000        0x0 d:/arc_gnu/bin/../lib/gcc/arc-elf32/7.1.1/../../../../arc-elf32/lib/em4_dmips\libc.a(lib_a-gmtime_r.o)
 .note.GNU-stack
                0x00000000        0x0 d:/arc_gnu/bin/../lib/gcc/arc-elf32/7.1.1/../../../../arc-elf32/lib/em4_dmips\libc.a(lib_a-impure.o)
 .note.GNU-stack
                0x00000000        0x0 d:/arc_gnu/bin/../lib/gcc/arc-elf32/7.1.1/../../../../arc-elf32/lib/em4_dmips\libc.a(lib_a-lcltime.o)
 .note.GNU-stack
                0x00000000        0x0 d:/arc_gnu/bin/../lib/gcc/arc-elf32/7.1.1/../../../../arc-elf32/lib/em4_dmips\libc.a(lib_a-lcltime_r.o)
 .note.GNU-stack
                0x00000000        0x0 d:/arc_gnu/bin/../lib/gcc/arc-elf32/7.1.1/../../../../arc-elf32/lib/em4_dmips\libc.a(lib_a-makebuf.o)
 .note.GNU-stack
                0x00000000        0x0 d:/arc_gnu/bin/../lib/gcc/arc-elf32/7.1.1/../../../../arc-elf32/lib/em4_dmips\libc.a(lib_a-malloc.o)
 .note.GNU-stack
                0x00000000        0x0 d:/arc_gnu/bin/../lib/gcc/arc-elf32/7.1.1/../../../../arc-elf32/lib/em4_dmips\libc.a(lib_a-mallocr.o)
 .note.GNU-stack
                0x00000000        0x0 d:/arc_gnu/bin/../lib/gcc/arc-elf32/7.1.1/../../../../arc-elf32/lib/em4_dmips\libc.a(lib_a-memchr.o)
 .note.GNU-stack
                0x00000000        0x0 d:/arc_gnu/bin/../lib/gcc/arc-elf32/7.1.1/../../../../arc-elf32/lib/em4_dmips\libc.a(lib_a-memmove.o)
 .note.GNU-stack
                0x00000000        0x0 d:/arc_gnu/bin/../lib/gcc/arc-elf32/7.1.1/../../../../arc-elf32/lib/em4_dmips\libc.a(lib_a-mlock.o)
 .note.GNU-stack
                0x00000000        0x0 d:/arc_gnu/bin/../lib/gcc/arc-elf32/7.1.1/../../../../arc-elf32/lib/em4_dmips\libc.a(lib_a-month_lengths.o)
 .note.GNU-stack
                0x00000000        0x0 d:/arc_gnu/bin/../lib/gcc/arc-elf32/7.1.1/../../../../arc-elf32/lib/em4_dmips\libc.a(lib_a-openr.o)
 .note.GNU-stack
                0x00000000        0x0 d:/arc_gnu/bin/../lib/gcc/arc-elf32/7.1.1/../../../../arc-elf32/lib/em4_dmips\libc.a(lib_a-printf.o)
 .note.GNU-stack
                0x00000000        0x0 d:/arc_gnu/bin/../lib/gcc/arc-elf32/7.1.1/../../../../arc-elf32/lib/em4_dmips\libc.a(lib_a-putchar.o)
 .note.GNU-stack
                0x00000000        0x0 d:/arc_gnu/bin/../lib/gcc/arc-elf32/7.1.1/../../../../arc-elf32/lib/em4_dmips\libc.a(lib_a-puts.o)
 .note.GNU-stack
                0x00000000        0x0 d:/arc_gnu/bin/../lib/gcc/arc-elf32/7.1.1/../../../../arc-elf32/lib/em4_dmips\libc.a(lib_a-rand.o)
 .note.GNU-stack
                0x00000000        0x0 d:/arc_gnu/bin/../lib/gcc/arc-elf32/7.1.1/../../../../arc-elf32/lib/em4_dmips\libc.a(lib_a-reent.o)
 .note.GNU-stack
                0x00000000        0x0 d:/arc_gnu/bin/../lib/gcc/arc-elf32/7.1.1/../../../../arc-elf32/lib/em4_dmips\libc.a(lib_a-refill.o)
 .note.GNU-stack
                0x00000000        0x0 d:/arc_gnu/bin/../lib/gcc/arc-elf32/7.1.1/../../../../arc-elf32/lib/em4_dmips\libc.a(lib_a-sbrkr.o)
 .note.GNU-stack
                0x00000000        0x0 d:/arc_gnu/bin/../lib/gcc/arc-elf32/7.1.1/../../../../arc-elf32/lib/em4_dmips\libc.a(lib_a-snprintf.o)
 .note.GNU-stack
                0x00000000        0x0 d:/arc_gnu/bin/../lib/gcc/arc-elf32/7.1.1/../../../../arc-elf32/lib/em4_dmips\libc.a(lib_a-sprintf.o)
 .note.GNU-stack
                0x00000000        0x0 d:/arc_gnu/bin/../lib/gcc/arc-elf32/7.1.1/../../../../arc-elf32/lib/em4_dmips\libc.a(lib_a-stdio.o)
 .note.GNU-stack
                0x00000000        0x0 d:/arc_gnu/bin/../lib/gcc/arc-elf32/7.1.1/../../../../arc-elf32/lib/em4_dmips\libc.a(lib_a-strcat.o)
 .note.GNU-stack
                0x00000000        0x0 d:/arc_gnu/bin/../lib/gcc/arc-elf32/7.1.1/../../../../arc-elf32/lib/em4_dmips\libc.a(lib_a-strncmp.o)
 .note.GNU-stack
                0x00000000        0x0 d:/arc_gnu/bin/../lib/gcc/arc-elf32/7.1.1/../../../../arc-elf32/lib/em4_dmips\libc.a(lib_a-strstr.o)
 .note.GNU-stack
                0x00000000        0x0 d:/arc_gnu/bin/../lib/gcc/arc-elf32/7.1.1/../../../../arc-elf32/lib/em4_dmips\libc.a(lib_a-strtol.o)
 .note.GNU-stack
                0x00000000        0x0 d:/arc_gnu/bin/../lib/gcc/arc-elf32/7.1.1/../../../../arc-elf32/lib/em4_dmips\libc.a(lib_a-svfprintf.o)
 .note.GNU-stack
                0x00000000        0x0 d:/arc_gnu/bin/../lib/gcc/arc-elf32/7.1.1/../../../../arc-elf32/lib/em4_dmips\libc.a(lib_a-sysstat.o)
 .note.GNU-stack
                0x00000000        0x0 d:/arc_gnu/bin/../lib/gcc/arc-elf32/7.1.1/../../../../arc-elf32/lib/em4_dmips\libc.a(lib_a-time.o)
 .note.GNU-stack
                0x00000000        0x0 d:/arc_gnu/bin/../lib/gcc/arc-elf32/7.1.1/../../../../arc-elf32/lib/em4_dmips\libc.a(lib_a-tzcalc_limits.o)
 .note.GNU-stack
                0x00000000        0x0 d:/arc_gnu/bin/../lib/gcc/arc-elf32/7.1.1/../../../../arc-elf32/lib/em4_dmips\libc.a(lib_a-tzlock.o)
 .note.GNU-stack
                0x00000000        0x0 d:/arc_gnu/bin/../lib/gcc/arc-elf32/7.1.1/../../../../arc-elf32/lib/em4_dmips\libc.a(lib_a-tzset.o)
 .note.GNU-stack
                0x00000000        0x0 d:/arc_gnu/bin/../lib/gcc/arc-elf32/7.1.1/../../../../arc-elf32/lib/em4_dmips\libc.a(lib_a-tzset_r.o)
 .note.GNU-stack
                0x00000000        0x0 d:/arc_gnu/bin/../lib/gcc/arc-elf32/7.1.1/../../../../arc-elf32/lib/em4_dmips\libc.a(lib_a-tzvars.o)
 .note.GNU-stack
                0x00000000        0x0 d:/arc_gnu/bin/../lib/gcc/arc-elf32/7.1.1/../../../../arc-elf32/lib/em4_dmips\libc.a(lib_a-vfprintf.o)
 .note.GNU-stack
                0x00000000        0x0 d:/arc_gnu/bin/../lib/gcc/arc-elf32/7.1.1/../../../../arc-elf32/lib/em4_dmips\libc.a(lib_a-vsnprintf.o)
 .note.GNU-stack
                0x00000000        0x0 d:/arc_gnu/bin/../lib/gcc/arc-elf32/7.1.1/../../../../arc-elf32/lib/em4_dmips\libc.a(lib_a-writer.o)
 .note.GNU-stack
                0x00000000        0x0 d:/arc_gnu/bin/../lib/gcc/arc-elf32/7.1.1/../../../../arc-elf32/lib/em4_dmips\libc.a(lib_a-wsetup.o)
 .note.GNU-stack
                0x00000000        0x0 d:/arc_gnu/bin/../lib/gcc/arc-elf32/7.1.1/../../../../arc-elf32/lib/em4_dmips\libc.a(lib_a-closer.o)
 .note.GNU-stack
                0x00000000        0x0 d:/arc_gnu/bin/../lib/gcc/arc-elf32/7.1.1/../../../../arc-elf32/lib/em4_dmips\libc.a(lib_a-dtoa.o)
 .note.GNU-stack
                0x00000000        0x0 d:/arc_gnu/bin/../lib/gcc/arc-elf32/7.1.1/../../../../arc-elf32/lib/em4_dmips\libc.a(lib_a-flags.o)
 .note.GNU-stack
                0x00000000        0x0 d:/arc_gnu/bin/../lib/gcc/arc-elf32/7.1.1/../../../../arc-elf32/lib/em4_dmips\libc.a(lib_a-fvwrite.o)
 .note.GNU-stack
                0x00000000        0x0 d:/arc_gnu/bin/../lib/gcc/arc-elf32/7.1.1/../../../../arc-elf32/lib/em4_dmips\libc.a(lib_a-getenv_r.o)
 .note.GNU-stack
                0x00000000        0x0 d:/arc_gnu/bin/../lib/gcc/arc-elf32/7.1.1/../../../../arc-elf32/lib/em4_dmips\libc.a(lib_a-gettimeofdayr.o)
 .note.GNU-stack
                0x00000000        0x0 d:/arc_gnu/bin/../lib/gcc/arc-elf32/7.1.1/../../../../arc-elf32/lib/em4_dmips\libc.a(lib_a-gettzinfo.o)
 .note.GNU-stack
                0x00000000        0x0 d:/arc_gnu/bin/../lib/gcc/arc-elf32/7.1.1/../../../../arc-elf32/lib/em4_dmips\libc.a(lib_a-isattyr.o)
 .note.GNU-stack
                0x00000000        0x0 d:/arc_gnu/bin/../lib/gcc/arc-elf32/7.1.1/../../../../arc-elf32/lib/em4_dmips\libc.a(lib_a-locale.o)
 .note.GNU-stack
                0x00000000        0x0 d:/arc_gnu/bin/../lib/gcc/arc-elf32/7.1.1/../../../../arc-elf32/lib/em4_dmips\libc.a(lib_a-localeconv.o)
 .note.GNU-stack
                0x00000000        0x0 d:/arc_gnu/bin/../lib/gcc/arc-elf32/7.1.1/../../../../arc-elf32/lib/em4_dmips\libc.a(lib_a-lseekr.o)
 .note.GNU-stack
                0x00000000        0x0 d:/arc_gnu/bin/../lib/gcc/arc-elf32/7.1.1/../../../../arc-elf32/lib/em4_dmips\libc.a(lib_a-mbtowc_r.o)
 .note.GNU-stack
                0x00000000        0x0 d:/arc_gnu/bin/../lib/gcc/arc-elf32/7.1.1/../../../../arc-elf32/lib/em4_dmips\libc.a(lib_a-mprec.o)
 .note.GNU-stack
                0x00000000        0x0 d:/arc_gnu/bin/../lib/gcc/arc-elf32/7.1.1/../../../../arc-elf32/lib/em4_dmips\libc.a(lib_a-putc.o)
 .note.GNU-stack
                0x00000000        0x0 d:/arc_gnu/bin/../lib/gcc/arc-elf32/7.1.1/../../../../arc-elf32/lib/em4_dmips\libc.a(lib_a-readr.o)
 .note.GNU-stack
                0x00000000        0x0 d:/arc_gnu/bin/../lib/gcc/arc-elf32/7.1.1/../../../../arc-elf32/lib/em4_dmips\libc.a(lib_a-reallocr.o)
 .note.GNU-stack
                0x00000000        0x0 d:/arc_gnu/bin/../lib/gcc/arc-elf32/7.1.1/../../../../arc-elf32/lib/em4_dmips\libc.a(lib_a-siscanf.o)
 .note.GNU-stack
                0x00000000        0x0 d:/arc_gnu/bin/../lib/gcc/arc-elf32/7.1.1/../../../../arc-elf32/lib/em4_dmips\libc.a(lib_a-statr.o)
 .note.GNU-stack
                0x00000000        0x0 d:/arc_gnu/bin/../lib/gcc/arc-elf32/7.1.1/../../../../arc-elf32/lib/em4_dmips\libc.a(lib_a-strtoul.o)
 .note.GNU-stack
                0x00000000        0x0 d:/arc_gnu/bin/../lib/gcc/arc-elf32/7.1.1/../../../../arc-elf32/lib/em4_dmips\libc.a(lib_a-svfiprintf.o)
 .note.GNU-stack
                0x00000000        0x0 d:/arc_gnu/bin/../lib/gcc/arc-elf32/7.1.1/../../../../arc-elf32/lib/em4_dmips\libc.a(lib_a-svfiscanf.o)
 .note.GNU-stack
                0x00000000        0x0 d:/arc_gnu/bin/../lib/gcc/arc-elf32/7.1.1/../../../../arc-elf32/lib/em4_dmips\libc.a(lib_a-ungetc.o)
 .note.GNU-stack
                0x00000000        0x0 d:/arc_gnu/bin/../lib/gcc/arc-elf32/7.1.1/../../../../arc-elf32/lib/em4_dmips\libc.a(lib_a-vfiprintf.o)
 .note.GNU-stack
                0x00000000        0x0 d:/arc_gnu/bin/../lib/gcc/arc-elf32/7.1.1/../../../../arc-elf32/lib/em4_dmips\libc.a(lib_a-wbuf.o)
 .note.GNU-stack
                0x00000000        0x0 d:/arc_gnu/bin/../lib/gcc/arc-elf32/7.1.1/../../../../arc-elf32/lib/em4_dmips\libc.a(lib_a-wctomb_r.o)
 .note.GNU-stack
                0x00000000        0x0 d:/arc_gnu/bin/../lib/gcc/arc-elf32/7.1.1/../../../../arc-elf32/lib/em4_dmips\libc.a(lib_a-ctype_.o)
 .note.GNU-stack
                0x00000000        0x0 d:/arc_gnu/bin/../lib/gcc/arc-elf32/7.1.1/../../../../arc-elf32/lib/em4_dmips\libc.a(lib_a-environ.o)
 .note.GNU-stack
                0x00000000        0x0 d:/arc_gnu/bin/../lib/gcc/arc-elf32/7.1.1/../../../../arc-elf32/lib/em4_dmips\libc.a(lib_a-envlock.o)
 .note.GNU-stack
                0x00000000        0x0 d:/arc_gnu/bin/../lib/gcc/arc-elf32/7.1.1/../../../../arc-elf32/lib/em4_dmips\libc.a(lib_a-fputwc.o)
 .note.GNU-stack
                0x00000000        0x0 d:/arc_gnu/bin/../lib/gcc/arc-elf32/7.1.1/../../../../arc-elf32/lib/em4_dmips\libc.a(lib_a-iswspace.o)
 .note.GNU-stack
                0x00000000        0x0 d:/arc_gnu/bin/../lib/gcc/arc-elf32/7.1.1/../../../../arc-elf32/lib/em4_dmips\libc.a(lib_a-mbrtowc.o)
 .note.GNU-stack
                0x00000000        0x0 d:/arc_gnu/bin/../lib/gcc/arc-elf32/7.1.1/../../../../arc-elf32/lib/em4_dmips\libc.a(lib_a-sccl.o)
 .note.GNU-stack
                0x00000000        0x0 d:/arc_gnu/bin/../lib/gcc/arc-elf32/7.1.1/../../../../arc-elf32/lib/em4_dmips\libc.a(lib_a-strtoll.o)
 .note.GNU-stack
                0x00000000        0x0 d:/arc_gnu/bin/../lib/gcc/arc-elf32/7.1.1/../../../../arc-elf32/lib/em4_dmips\libc.a(lib_a-strtoull.o)
 .note.GNU-stack
                0x00000000        0x0 d:/arc_gnu/bin/../lib/gcc/arc-elf32/7.1.1/../../../../arc-elf32/lib/em4_dmips\libc.a(lib_a-wcrtomb.o)
 .note.GNU-stack
                0x00000000        0x0 d:/arc_gnu/bin/../lib/gcc/arc-elf32/7.1.1/em4_dmips\libgcc.a(_udivdi3.o)
 .note.GNU-stack
                0x00000000        0x0 d:/arc_gnu/bin/../lib/gcc/arc-elf32/7.1.1/em4_dmips\libgcc.a(_umoddi3.o)
 .note.GNU-stack
                0x00000000        0x0 d:/arc_gnu/bin/../lib/gcc/arc-elf32/7.1.1/em4_dmips\libgcc.a(fp-bit.o)
 .note.GNU-stack
                0x00000000        0x0 d:/arc_gnu/bin/../lib/gcc/arc-elf32/7.1.1/em4_dmips\libgcc.a(dp-bit.o)
 .note.GNU-stack
                0x00000000        0x0 obj_emsk_22/gnu_arcem7d/library/clib/embarc_sbrk.o
 .note.GNU-stack
                0x00000000        0x0 obj_emsk_22/gnu_arcem7d/library/clib/embarc_syscalls.o
 .note.GNU-stack
                0x00000000        0x0 obj_emsk_22/gnu_arcem7d/library/clib/embarc_target.o
 .note.GNU-stack
                0x00000000        0x0 d:/arc_gnu/bin/../lib/gcc/arc-elf32/7.1.1/../../../../arc-elf32/lib/em4_dmips\libc.a(lib_a-mktime.o)
 .note.GNU-stack
                0x00000000        0x0 d:/arc_gnu/bin/../lib/gcc/arc-elf32/7.1.1/../../../../arc-elf32/lib/em4_dmips\libc.a(lib_a-sscanf.o)
 .note.GNU-stack
                0x00000000        0x0 d:/arc_gnu/bin/../lib/gcc/arc-elf32/7.1.1/../../../../arc-elf32/lib/em4_dmips\libc.a(lib_a-svfscanf.o)
 .note.GNU-stack
                0x00000000        0x0 d:/arc_gnu/bin/../lib/gcc/arc-elf32/7.1.1/../../../../arc-elf32/lib/em4_dmips\libc.a(lib_a-div.o)
 .note.GNU-stack
                0x00000000        0x0 d:/arc_gnu/bin/../lib/gcc/arc-elf32/7.1.1/../../../../arc-elf32/lib/em4_dmips\libc.a(lib_a-sf_nan.o)
 .note.GNU-stack
                0x00000000        0x0 d:/arc_gnu/bin/../lib/gcc/arc-elf32/7.1.1/../../../../arc-elf32/lib/em4_dmips\libc.a(lib_a-strtod.o)
 .note.GNU-stack
                0x00000000        0x0 d:/arc_gnu/bin/../lib/gcc/arc-elf32/7.1.1/../../../../arc-elf32/lib/em4_dmips\libc.a(lib_a-gdtoa-gethex.o)
 .note.GNU-stack
                0x00000000        0x0 d:/arc_gnu/bin/../lib/gcc/arc-elf32/7.1.1/../../../../arc-elf32/lib/em4_dmips\libc.a(lib_a-gdtoa-hexnan.o)

.ARC.attributes
                0x00000000       0x3a
 .ARC.attributes
                0x00000000       0x28 obj_emsk_22/gnu_arcem7d/application/./Source/main.o
 .ARC.attributes
                0x00000028       0x23 obj_emsk_22/gnu_arcem7d/board/board.o
 .ARC.attributes
                0x0000004b       0x26 obj_emsk_22/gnu_arcem7d/arc/startup/arc_cxx_support.o
 .ARC.attributes
                0x00000071       0x1f obj_emsk_22/gnu_arcem7d/arc/startup/arc_startup.o
 .ARC.attributes
                0x00000090       0x23 obj_emsk_22/gnu_arcem7d/board/emsk/common/emsk_init.o
 .ARC.attributes
                0x000000b3       0x26 obj_emsk_22/gnu_arcem7d/board/emsk/drivers/mux/mux.o
 .ARC.attributes
                0x000000d9       0x23 obj_emsk_22/gnu_arcem7d/board/emsk/drivers/pmwifi/pmwifi.o
 .ARC.attributes
                0x000000fc       0x23 obj_emsk_22/gnu_arcem7d/middleware/common/console_io.o
 .ARC.attributes
                0x0000011f       0x2d obj_emsk_22/gnu_arcem7d/middleware/common/xprintf/xprintf.o
 .ARC.attributes
                0x0000014c       0x30 obj_emsk_22/gnu_arcem7d/middleware/fatfs/src/ff.o
 .ARC.attributes
                0x0000017c       0x26 obj_emsk_22/gnu_arcem7d/middleware/fatfs/src/ff_unicode.o
 .ARC.attributes
                0x000001a2       0x26 obj_emsk_22/gnu_arcem7d/middleware/lwip-contrib/ports/arc/lwip_pmwifi.o
 .ARC.attributes
                0x000001c8       0x26 obj_emsk_22/gnu_arcem7d/middleware/lwip-contrib/ports/arc/netif/pmwifi_netif.o
 .ARC.attributes
                0x000001ee       0x23 obj_emsk_22/gnu_arcem7d/middleware/lwip-contrib/ports/arc/sys_arch/freertos/sys_arch.o
 .ARC.attributes
                0x00000211       0x23 obj_emsk_22/gnu_arcem7d/middleware/vending-machine/source/led_task.o
 .ARC.attributes
                0x00000234       0x23 obj_emsk_22/gnu_arcem7d/middleware/vending-machine/source/temp_task.o
 .ARC.attributes
                0x00000257       0x23 obj_emsk_22/gnu_arcem7d/middleware/vending-machine/source/vm_task.o
 .ARC.attributes
                0x0000027a       0x28 obj_emsk_22/gnu_arcem7d/middleware/vending-machine/source/oled_task.o
 .ARC.attributes
                0x000002a2       0x28 obj_emsk_22/gnu_arcem7d/middleware/vending-machine/source/numpad_task.o
 .ARC.attributes
                0x000002ca       0x28 obj_emsk_22/gnu_arcem7d/middleware/vending-machine/source/communication_task.o
 .ARC.attributes
                0x000002f2       0x23 obj_emsk_22/gnu_arcem7d/os/freertos/portable/synopsys/arc/arc_freertos_exceptions.o
 .ARC.attributes
                0x00000315       0x28 obj_emsk_22/gnu_arcem7d/os/freertos/tasks.o
 .ARC.attributes
                0x0000033d       0x23 obj_emsk_22/gnu_arcem7d/os/freertos/list.o
 .ARC.attributes
                0x00000360       0x25 obj_emsk_22/gnu_arcem7d/os/freertos/queue.o
 .ARC.attributes
                0x00000385       0x26 obj_emsk_22/gnu_arcem7d/arc/arc_timer.o
 .ARC.attributes
                0x000003ab       0x26 obj_emsk_22/gnu_arcem7d/arc/arc_cache.o
 .ARC.attributes
                0x000003d1       0x26 obj_emsk_22/gnu_arcem7d/arc/arc_exception.o
 .ARC.attributes
                0x000003f7       0x22 obj_emsk_22/gnu_arcem7d/arc/arc_exc_asm.o
 .ARC.attributes
                0x00000419       0x23 obj_emsk_22/gnu_arcem7d/library/clib/embarc_misc.o
 .ARC.attributes
                0x0000043c       0x26 obj_emsk_22/gnu_arcem7d/board/emsk/drivers/ip/designware/gpio/dw_gpio_obj.o
 .ARC.attributes
                0x00000462       0x23 obj_emsk_22/gnu_arcem7d/board/emsk/drivers/ip/designware/uart/dw_uart_obj.o
 .ARC.attributes
                0x00000485       0x28 obj_emsk_22/gnu_arcem7d/device/ip/designware/gpio/dw_gpio.o
 .ARC.attributes
                0x000004ad       0x2e obj_emsk_22/gnu_arcem7d/device/ip/designware/uart/dw_uart.o
 .ARC.attributes
                0x000004db       0x26 obj_emsk_22/gnu_arcem7d/device/peripheral/sensor/temperature/adt7420/adt7420.o
 .ARC.attributes
                0x00000501       0x28 obj_emsk_22/gnu_arcem7d/device/peripheral/wifi/rw009/rw009.o
 .ARC.attributes
                0x00000529       0x23 obj_emsk_22/gnu_arcem7d/board/emsk/common/emsk_gpio.o
 .ARC.attributes
                0x0000054c       0x28 obj_emsk_22/gnu_arcem7d/board/emsk/common/emsk_timer.o
 .ARC.attributes
                0x00000574       0x26 obj_emsk_22/gnu_arcem7d/board/emsk/drivers/sdcard/emsk_sdcard.o
 .ARC.attributes
                0x0000059a       0x23 obj_emsk_22/gnu_arcem7d/middleware/fatfs/src/diskio.o
 .ARC.attributes
                0x000005bd       0x23 obj_emsk_22/gnu_arcem7d/middleware/lwip/src/core/pbuf.o
 .ARC.attributes
                0x000005e0       0x28 obj_emsk_22/gnu_arcem7d/middleware/lwip/src/core/dns.o
 .ARC.attributes
                0x00000608       0x25 obj_emsk_22/gnu_arcem7d/middleware/lwip/src/core/mem.o
 .ARC.attributes
                0x0000062d       0x26 obj_emsk_22/gnu_arcem7d/middleware/lwip/src/core/udp.o
 .ARC.attributes
                0x00000653       0x30 obj_emsk_22/gnu_arcem7d/middleware/lwip/src/core/def.o
 .ARC.attributes
                0x00000683       0x28 obj_emsk_22/gnu_arcem7d/middleware/lwip/src/core/tcp.o
 .ARC.attributes
                0x000006ab       0x23 obj_emsk_22/gnu_arcem7d/middleware/lwip/src/core/netif.o
 .ARC.attributes
                0x000006ce       0x26 obj_emsk_22/gnu_arcem7d/middleware/lwip/src/core/timeouts.o
 .ARC.attributes
                0x000006f4       0x30 obj_emsk_22/gnu_arcem7d/middleware/lwip/src/core/tcp_in.o
 .ARC.attributes
                0x00000724       0x26 obj_emsk_22/gnu_arcem7d/middleware/lwip/src/core/memp.o
 .ARC.attributes
                0x0000074a       0x26 obj_emsk_22/gnu_arcem7d/middleware/lwip/src/core/inet_chksum.o
 .ARC.attributes
                0x00000770       0x26 obj_emsk_22/gnu_arcem7d/middleware/lwip/src/core/ipv4/icmp.o
 .ARC.attributes
                0x00000796       0x26 obj_emsk_22/gnu_arcem7d/middleware/lwip/src/core/ipv4/ip4.o
 .ARC.attributes
                0x000007bc       0x28 obj_emsk_22/gnu_arcem7d/middleware/lwip/src/core/ipv4/ip4_addr.o
 .ARC.attributes
                0x000007e4       0x28 obj_emsk_22/gnu_arcem7d/middleware/lwip/src/core/ipv4/etharp.o
 .ARC.attributes
                0x0000080c       0x28 obj_emsk_22/gnu_arcem7d/middleware/lwip/src/core/ipv4/dhcp.o
 .ARC.attributes
                0x00000834       0x26 obj_emsk_22/gnu_arcem7d/middleware/lwip/src/core/ipv4/ip4_frag.o
 .ARC.attributes
                0x0000085a       0x26 obj_emsk_22/gnu_arcem7d/middleware/lwip/src/netif/ethernet.o
 .ARC.attributes
                0x00000880       0x23 obj_emsk_22/gnu_arcem7d/middleware/lwip/src/api/tcpip.o
 .ARC.attributes
                0x000008a3       0x26 obj_emsk_22/gnu_arcem7d/middleware/mbedtls/library/ctr_drbg.o
 .ARC.attributes
                0x000008c9       0x26 obj_emsk_22/gnu_arcem7d/middleware/mbedtls/library/x509_crt.o
 .ARC.attributes
                0x000008ef       0x25 obj_emsk_22/gnu_arcem7d/middleware/mbedtls/library/x509.o
 .ARC.attributes
                0x00000914       0x23 obj_emsk_22/gnu_arcem7d/middleware/mbedtls/library/ssl_ciphersuites.o
 .ARC.attributes
                0x00000937       0x23 obj_emsk_22/gnu_arcem7d/middleware/mbedtls/library/certs.o
 .ARC.attributes
                0x0000095a       0x23 obj_emsk_22/gnu_arcem7d/middleware/mbedtls/library/threading.o
 .ARC.attributes
                0x0000097d       0x26 obj_emsk_22/gnu_arcem7d/middleware/mbedtls/library/pk.o
 .ARC.attributes
                0x000009a3       0x26 obj_emsk_22/gnu_arcem7d/middleware/mbedtls/library/asn1parse.o
 .ARC.attributes
                0x000009c9       0x28 obj_emsk_22/gnu_arcem7d/middleware/mbedtls/library/rsa.o
 .ARC.attributes
                0x000009f1       0x28 obj_emsk_22/gnu_arcem7d/middleware/mbedtls/library/oid.o
 .ARC.attributes
                0x00000a19       0x28 obj_emsk_22/gnu_arcem7d/middleware/mbedtls/library/sha1.o
 .ARC.attributes
                0x00000a41       0x23 obj_emsk_22/gnu_arcem7d/middleware/mbedtls/library/pkparse.o
 .ARC.attributes
                0x00000a64       0x30 obj_emsk_22/gnu_arcem7d/middleware/mbedtls/library/ssl_tls.o
 .ARC.attributes
                0x00000a94       0x26 obj_emsk_22/gnu_arcem7d/middleware/mbedtls/library/dhm.o
 .ARC.attributes
                0x00000aba       0x2d obj_emsk_22/gnu_arcem7d/middleware/mbedtls/library/cipher.o
 .ARC.attributes
                0x00000ae7       0x28 obj_emsk_22/gnu_arcem7d/middleware/mbedtls/library/sha512.o
 .ARC.attributes
                0x00000b0f       0x25 obj_emsk_22/gnu_arcem7d/middleware/mbedtls/library/entropy.o
 .ARC.attributes
                0x00000b34       0x28 obj_emsk_22/gnu_arcem7d/middleware/mbedtls/library/aes.o
 .ARC.attributes
                0x00000b5c       0x28 obj_emsk_22/gnu_arcem7d/middleware/mbedtls/library/debug.o
 .ARC.attributes
                0x00000b84       0x26 obj_emsk_22/gnu_arcem7d/middleware/mbedtls/library/havege.o
 .ARC.attributes
                0x00000baa       0x23 obj_emsk_22/gnu_arcem7d/middleware/mbedtls/library/entropy_poll.o
 .ARC.attributes
                0x00000bcd       0x23 obj_emsk_22/gnu_arcem7d/middleware/mbedtls/library/error.o
 .ARC.attributes
                0x00000bf0       0x26 obj_emsk_22/gnu_arcem7d/middleware/mbedtls/library/pem.o
 .ARC.attributes
                0x00000c16       0x26 obj_emsk_22/gnu_arcem7d/middleware/mbedtls/library/pkcs12.o
 .ARC.attributes
                0x00000c3c       0x23 obj_emsk_22/gnu_arcem7d/middleware/mbedtls/embarc/threading_alt.o
 .ARC.attributes
                0x00000c5f       0x25 obj_emsk_22/gnu_arcem7d/middleware/mbedtls/embarc/timing_alt.o
 .ARC.attributes
                0x00000c84       0x28 obj_emsk_22/gnu_arcem7d/middleware/mbedtls/embarc/net_alt.o
 .ARC.attributes
                0x00000cac       0x23 obj_emsk_22/gnu_arcem7d/middleware/u8glib/csrc/u8g_com_embarc_ssd1306_spi.o
 .ARC.attributes
                0x00000ccf       0x26 obj_emsk_22/gnu_arcem7d/middleware/u8glib/csrc/u8g_dev_embarc_ssd1306_128x64.o
 .ARC.attributes
                0x00000cf5       0x23 obj_emsk_22/gnu_arcem7d/middleware/u8glib/csrc/u8g_pb.o
 .ARC.attributes
                0x00000d18       0x26 obj_emsk_22/gnu_arcem7d/middleware/u8glib/csrc/u8g_pb16v1.o
 .ARC.attributes
                0x00000d3e       0x28 obj_emsk_22/gnu_arcem7d/middleware/u8glib/csrc/u8g_font.o
 .ARC.attributes
                0x00000d66       0x26 obj_emsk_22/gnu_arcem7d/middleware/u8glib/csrc/u8g_pb8v1.o
 .ARC.attributes
                0x00000d8c       0x26 obj_emsk_22/gnu_arcem7d/middleware/u8glib/csrc/u8g_rect.o
 .ARC.attributes
                0x00000db2       0x26 obj_emsk_22/gnu_arcem7d/middleware/u8glib/csrc/u8g_ll_api.o
 .ARC.attributes
                0x00000dd8       0x23 obj_emsk_22/gnu_arcem7d/middleware/u8glib/csrc/u8g_delay.o
 .ARC.attributes
                0x00000dfb       0x23 obj_emsk_22/gnu_arcem7d/middleware/u8glib/csrc/u8g_clip.o
 .ARC.attributes
                0x00000e1e       0x23 obj_emsk_22/gnu_arcem7d/middleware/u8glib/csrc/u8g_line.o
 .ARC.attributes
                0x00000e41       0x23 obj_emsk_22/gnu_arcem7d/middleware/u8glib/csrc/u8g_state.o
 .ARC.attributes
                0x00000e64       0x26 obj_emsk_22/gnu_arcem7d/middleware/u8glib/csrc/u8g_circle.o
 .ARC.attributes
                0x00000e8a       0x23 obj_emsk_22/gnu_arcem7d/middleware/u8glib/fntsrc/u8g_font_gdr30.o
 .ARC.attributes
                0x00000ead       0x23 obj_emsk_22/gnu_arcem7d/middleware/u8glib/fntsrc/u8g_font_gdr20.o
 .ARC.attributes
                0x00000ed0       0x23 obj_emsk_22/gnu_arcem7d/middleware/u8glib/fntsrc/u8g_font_6x10.o
 .ARC.attributes
                0x00000ef3       0x23 obj_emsk_22/gnu_arcem7d/os/freertos/portable/synopsys/arc/port.o
 .ARC.attributes
                0x00000f16       0x26 obj_emsk_22/gnu_arcem7d/os/freertos/portable/heap_sel.o
 .ARC.attributes
                0x00000f3c       0x22 obj_emsk_22/gnu_arcem7d/os/freertos/portable/synopsys/arc/arc_support.o
 .ARC.attributes
                0x00000f5e       0x23 obj_emsk_22/gnu_arcem7d/library/clib/fatfs_dirent.o
 .ARC.attributes
                0x00000f81       0x23 obj_emsk_22/gnu_arcem7d/board/emsk/drivers/ip/designware/iic/dw_iic_obj.o
 .ARC.attributes
                0x00000fa4       0x26 obj_emsk_22/gnu_arcem7d/board/emsk/drivers/ip/designware/spi/dw_spi_obj.o
 .ARC.attributes
                0x00000fca       0x30 obj_emsk_22/gnu_arcem7d/device/ip/designware/iic/dw_iic.o
 .ARC.attributes
                0x00000ffa       0x30 obj_emsk_22/gnu_arcem7d/device/ip/designware/spi/dw_spi.o
 .ARC.attributes
                0x0000102a       0x23 obj_emsk_22/gnu_arcem7d/board/emsk/drivers/sdcard/emsk_sdcard_spi.o
 .ARC.attributes
                0x0000104d       0x28 obj_emsk_22/gnu_arcem7d/middleware/fatfs/src/diskdrv/ff_sdcard_spi.o
 .ARC.attributes
                0x00001075       0x28 obj_emsk_22/gnu_arcem7d/middleware/lwip/src/core/tcp_out.o
 .ARC.attributes
                0x0000109d       0x23 obj_emsk_22/gnu_arcem7d/middleware/lwip/src/core/raw.o
 .ARC.attributes
                0x000010c0       0x23 obj_emsk_22/gnu_arcem7d/middleware/lwip/src/core/ip.o
 .ARC.attributes
                0x000010e3       0x23 obj_emsk_22/gnu_arcem7d/middleware/lwip/src/core/init.o
 .ARC.attributes
                0x00001106       0x28 obj_emsk_22/gnu_arcem7d/middleware/lwip/src/api/sockets.o
 .ARC.attributes
                0x0000112e       0x26 obj_emsk_22/gnu_arcem7d/middleware/lwip/src/api/err.o
 .ARC.attributes
                0x00001154       0x23 obj_emsk_22/gnu_arcem7d/middleware/lwip/src/api/netbuf.o
 .ARC.attributes
                0x00001177       0x23 obj_emsk_22/gnu_arcem7d/middleware/lwip/src/api/api_lib.o
 .ARC.attributes
                0x0000119a       0x23 obj_emsk_22/gnu_arcem7d/middleware/lwip/src/api/netdb.o
 .ARC.attributes
                0x000011bd       0x30 obj_emsk_22/gnu_arcem7d/middleware/mbedtls/library/bignum.o
 .ARC.attributes
                0x000011ed       0x26 obj_emsk_22/gnu_arcem7d/middleware/mbedtls/library/ssl_cli.o
 .ARC.attributes
                0x00001213       0x26 obj_emsk_22/gnu_arcem7d/middleware/mbedtls/library/pk_wrap.o
 .ARC.attributes
                0x00001239       0x28 obj_emsk_22/gnu_arcem7d/middleware/mbedtls/library/base64.o
 .ARC.attributes
                0x00001261       0x26 obj_emsk_22/gnu_arcem7d/middleware/mbedtls/library/md.o
 .ARC.attributes
                0x00001287       0x26 obj_emsk_22/gnu_arcem7d/middleware/mbedtls/library/ccm.o
 .ARC.attributes
                0x000012ad       0x26 obj_emsk_22/gnu_arcem7d/middleware/mbedtls/library/ecp_curves.o
 .ARC.attributes
                0x000012d3       0x26 obj_emsk_22/gnu_arcem7d/middleware/mbedtls/library/arc4.o
 .ARC.attributes
                0x000012f9       0x30 obj_emsk_22/gnu_arcem7d/middleware/mbedtls/library/ecp.o
 .ARC.attributes
                0x00001329       0x26 obj_emsk_22/gnu_arcem7d/middleware/mbedtls/library/ecdh.o
 .ARC.attributes
                0x0000134f       0x26 obj_emsk_22/gnu_arcem7d/middleware/mbedtls/library/cipher_wrap.o
 .ARC.attributes
                0x00001375       0x28 obj_emsk_22/gnu_arcem7d/middleware/mbedtls/library/des.o
 .ARC.attributes
                0x0000139d       0x28 obj_emsk_22/gnu_arcem7d/middleware/mbedtls/library/md5.o
 .ARC.attributes
                0x000013c5       0x28 obj_emsk_22/gnu_arcem7d/middleware/mbedtls/library/pkcs5.o
 .ARC.attributes
                0x000013ed       0x28 obj_emsk_22/gnu_arcem7d/middleware/mbedtls/library/gcm.o
 .ARC.attributes
                0x00001415       0x28 obj_emsk_22/gnu_arcem7d/middleware/mbedtls/library/sha256.o
 .ARC.attributes
                0x0000143d       0x26 obj_emsk_22/gnu_arcem7d/middleware/mbedtls/library/ssl_srv.o
 .ARC.attributes
                0x00001463       0x26 obj_emsk_22/gnu_arcem7d/middleware/mbedtls/library/ecdsa.o
 .ARC.attributes
                0x00001489       0x23 obj_emsk_22/gnu_arcem7d/middleware/mbedtls/library/md_wrap.o
 .ARC.attributes
                0x000014ac       0x25 obj_emsk_22/gnu_arcem7d/middleware/mbedtls/library/hmac_drbg.o
 .ARC.attributes
                0x000014d1       0x23 obj_emsk_22/gnu_arcem7d/middleware/u8glib/csrc/u8g_com_embarc_ssd1306_i2c.o
 .ARC.attributes
                0x000014f4       0x26 obj_emsk_22/gnu_arcem7d/middleware/u8glib/csrc/u8g_com_api.o
 .ARC.attributes
                0x0000151a       0x23 obj_emsk_22/gnu_arcem7d/middleware/u8glib/csrc/u8g_page.o
 .ARC.attributes
                0x0000153d       0x23 obj_emsk_22/gnu_arcem7d/middleware/lwip/src/api/api_msg.o
 .ARC.attributes
                0x00001560       0x28 obj_emsk_22/gnu_arcem7d/middleware/mbedtls/library/ripemd160.o
 .ARC.attributes
                0x00001588       0x28 obj_emsk_22/gnu_arcem7d/middleware/mbedtls/library/camellia.o
 .ARC.attributes
                0x000015b0       0x26 obj_emsk_22/gnu_arcem7d/middleware/mbedtls/library/asn1write.o
 .ARC.attributes
                0x000015d6       0x26 obj_emsk_22/gnu_arcem7d/middleware/mbedtls/library/blowfish.o
 .ARC.attributes
                0x000015fc       0x25 d:/arc_gnu/bin/../lib/gcc/arc-elf32/7.1.1/../../../../arc-elf32/lib/em4_dmips\libc.a(lib_a-atoi.o)
 .ARC.attributes
                0x00001621       0x25 d:/arc_gnu/bin/../lib/gcc/arc-elf32/7.1.1/../../../../arc-elf32/lib/em4_dmips\libc.a(lib_a-calloc.o)
 .ARC.attributes
                0x00001646       0x27 d:/arc_gnu/bin/../lib/gcc/arc-elf32/7.1.1/../../../../arc-elf32/lib/em4_dmips\libc.a(lib_a-callocr.o)
 .ARC.attributes
                0x0000166d       0x25 d:/arc_gnu/bin/../lib/gcc/arc-elf32/7.1.1/../../../../arc-elf32/lib/em4_dmips\libc.a(lib_a-fclose.o)
 .ARC.attributes
                0x00001692       0x25 d:/arc_gnu/bin/../lib/gcc/arc-elf32/7.1.1/../../../../arc-elf32/lib/em4_dmips\libc.a(lib_a-fflush.o)
 .ARC.attributes
                0x000016b7       0x25 d:/arc_gnu/bin/../lib/gcc/arc-elf32/7.1.1/../../../../arc-elf32/lib/em4_dmips\libc.a(lib_a-fgets.o)
 .ARC.attributes
                0x000016dc       0x27 d:/arc_gnu/bin/../lib/gcc/arc-elf32/7.1.1/../../../../arc-elf32/lib/em4_dmips\libc.a(lib_a-findfp.o)
 .ARC.attributes
                0x00001703       0x25 d:/arc_gnu/bin/../lib/gcc/arc-elf32/7.1.1/../../../../arc-elf32/lib/em4_dmips\libc.a(lib_a-fopen.o)
 .ARC.attributes
                0x00001728       0x25 d:/arc_gnu/bin/../lib/gcc/arc-elf32/7.1.1/../../../../arc-elf32/lib/em4_dmips\libc.a(lib_a-fprintf.o)
 .ARC.attributes
                0x0000174d       0x2f d:/arc_gnu/bin/../lib/gcc/arc-elf32/7.1.1/../../../../arc-elf32/lib/em4_dmips\libc.a(lib_a-fread.o)
 .ARC.attributes
                0x0000177c       0x28 d:/arc_gnu/bin/../lib/gcc/arc-elf32/7.1.1/../../../../arc-elf32/lib/em4_dmips\libc.a(lib_a-freer.o)
 .ARC.attributes
                0x000017a4       0x25 d:/arc_gnu/bin/../lib/gcc/arc-elf32/7.1.1/../../../../arc-elf32/lib/em4_dmips\libc.a(lib_a-fseek.o)
 .ARC.attributes
                0x000017c9       0x25 d:/arc_gnu/bin/../lib/gcc/arc-elf32/7.1.1/../../../../arc-elf32/lib/em4_dmips\libc.a(lib_a-fseeko.o)
 .ARC.attributes
                0x000017ee       0x25 d:/arc_gnu/bin/../lib/gcc/arc-elf32/7.1.1/../../../../arc-elf32/lib/em4_dmips\libc.a(lib_a-fstatr.o)
 .ARC.attributes
                0x00001813       0x25 d:/arc_gnu/bin/../lib/gcc/arc-elf32/7.1.1/../../../../arc-elf32/lib/em4_dmips\libc.a(lib_a-ftell.o)
 .ARC.attributes
                0x00001838       0x25 d:/arc_gnu/bin/../lib/gcc/arc-elf32/7.1.1/../../../../arc-elf32/lib/em4_dmips\libc.a(lib_a-ftello.o)
 .ARC.attributes
                0x0000185d       0x25 d:/arc_gnu/bin/../lib/gcc/arc-elf32/7.1.1/../../../../arc-elf32/lib/em4_dmips\libc.a(lib_a-fwalk.o)
 .ARC.attributes
                0x00001882       0x2f d:/arc_gnu/bin/../lib/gcc/arc-elf32/7.1.1/../../../../arc-elf32/lib/em4_dmips\libc.a(lib_a-fwrite.o)
 .ARC.attributes
                0x000018b1       0x25 d:/arc_gnu/bin/../lib/gcc/arc-elf32/7.1.1/../../../../arc-elf32/lib/em4_dmips\libc.a(lib_a-gmtime.o)
 .ARC.attributes
                0x000018d6       0x2a d:/arc_gnu/bin/../lib/gcc/arc-elf32/7.1.1/../../../../arc-elf32/lib/em4_dmips\libc.a(lib_a-gmtime_r.o)
 .ARC.attributes
                0x00001900       0x25 d:/arc_gnu/bin/../lib/gcc/arc-elf32/7.1.1/../../../../arc-elf32/lib/em4_dmips\libc.a(lib_a-impure.o)
 .ARC.attributes
                0x00001925       0x25 d:/arc_gnu/bin/../lib/gcc/arc-elf32/7.1.1/../../../../arc-elf32/lib/em4_dmips\libc.a(lib_a-lcltime.o)
 .ARC.attributes
                0x0000194a       0x2a d:/arc_gnu/bin/../lib/gcc/arc-elf32/7.1.1/../../../../arc-elf32/lib/em4_dmips\libc.a(lib_a-lcltime_r.o)
 .ARC.attributes
                0x00001974       0x25 d:/arc_gnu/bin/../lib/gcc/arc-elf32/7.1.1/../../../../arc-elf32/lib/em4_dmips\libc.a(lib_a-makebuf.o)
 .ARC.attributes
                0x00001999       0x25 d:/arc_gnu/bin/../lib/gcc/arc-elf32/7.1.1/../../../../arc-elf32/lib/em4_dmips\libc.a(lib_a-malloc.o)
 .ARC.attributes
                0x000019be       0x28 d:/arc_gnu/bin/../lib/gcc/arc-elf32/7.1.1/../../../../arc-elf32/lib/em4_dmips\libc.a(lib_a-mallocr.o)
 .ARC.attributes
                0x000019e6       0x28 d:/arc_gnu/bin/../lib/gcc/arc-elf32/7.1.1/../../../../arc-elf32/lib/em4_dmips\libc.a(lib_a-memchr.o)
 .ARC.attributes
                0x00001a0e       0x2a d:/arc_gnu/bin/../lib/gcc/arc-elf32/7.1.1/../../../../arc-elf32/lib/em4_dmips\libc.a(lib_a-memcmp-bs-norm.o)
 .ARC.attributes
                0x00001a38       0x22 d:/arc_gnu/bin/../lib/gcc/arc-elf32/7.1.1/../../../../arc-elf32/lib/em4_dmips\libc.a(lib_a-memcpy-bs.o)
 .ARC.attributes
                0x00001a5a       0x28 d:/arc_gnu/bin/../lib/gcc/arc-elf32/7.1.1/../../../../arc-elf32/lib/em4_dmips\libc.a(lib_a-memmove.o)
 .ARC.attributes
                0x00001a82       0x22 d:/arc_gnu/bin/../lib/gcc/arc-elf32/7.1.1/../../../../arc-elf32/lib/em4_dmips\libc.a(lib_a-memset-bs.o)
 .ARC.attributes
                0x00001aa4       0x25 d:/arc_gnu/bin/../lib/gcc/arc-elf32/7.1.1/../../../../arc-elf32/lib/em4_dmips\libc.a(lib_a-mlock.o)
 .ARC.attributes
                0x00001ac9       0x25 d:/arc_gnu/bin/../lib/gcc/arc-elf32/7.1.1/../../../../arc-elf32/lib/em4_dmips\libc.a(lib_a-month_lengths.o)
 .ARC.attributes
                0x00001aee       0x25 d:/arc_gnu/bin/../lib/gcc/arc-elf32/7.1.1/../../../../arc-elf32/lib/em4_dmips\libc.a(lib_a-openr.o)
 .ARC.attributes
                0x00001b13       0x25 d:/arc_gnu/bin/../lib/gcc/arc-elf32/7.1.1/../../../../arc-elf32/lib/em4_dmips\libc.a(lib_a-printf.o)
 .ARC.attributes
                0x00001b38       0x25 d:/arc_gnu/bin/../lib/gcc/arc-elf32/7.1.1/../../../../arc-elf32/lib/em4_dmips\libc.a(lib_a-putchar.o)
 .ARC.attributes
                0x00001b5d       0x25 d:/arc_gnu/bin/../lib/gcc/arc-elf32/7.1.1/../../../../arc-elf32/lib/em4_dmips\libc.a(lib_a-puts.o)
 .ARC.attributes
                0x00001b82       0x27 d:/arc_gnu/bin/../lib/gcc/arc-elf32/7.1.1/../../../../arc-elf32/lib/em4_dmips\libc.a(lib_a-rand.o)
 .ARC.attributes
                0x00001ba9       0x25 d:/arc_gnu/bin/../lib/gcc/arc-elf32/7.1.1/../../../../arc-elf32/lib/em4_dmips\libc.a(lib_a-reent.o)
 .ARC.attributes
                0x00001bce       0x25 d:/arc_gnu/bin/../lib/gcc/arc-elf32/7.1.1/../../../../arc-elf32/lib/em4_dmips\libc.a(lib_a-refill.o)
 .ARC.attributes
                0x00001bf3       0x25 d:/arc_gnu/bin/../lib/gcc/arc-elf32/7.1.1/../../../../arc-elf32/lib/em4_dmips\libc.a(lib_a-sbrkr.o)
 .ARC.attributes
                0x00001c18       0x25 d:/arc_gnu/bin/../lib/gcc/arc-elf32/7.1.1/../../../../arc-elf32/lib/em4_dmips\libc.a(lib_a-snprintf.o)
 .ARC.attributes
                0x00001c3d       0x25 d:/arc_gnu/bin/../lib/gcc/arc-elf32/7.1.1/../../../../arc-elf32/lib/em4_dmips\libc.a(lib_a-sprintf.o)
 .ARC.attributes
                0x00001c62       0x25 d:/arc_gnu/bin/../lib/gcc/arc-elf32/7.1.1/../../../../arc-elf32/lib/em4_dmips\libc.a(lib_a-stdio.o)
 .ARC.attributes
                0x00001c87       0x25 d:/arc_gnu/bin/../lib/gcc/arc-elf32/7.1.1/../../../../arc-elf32/lib/em4_dmips\libc.a(lib_a-strcat.o)
 .ARC.attributes
                0x00001cac       0x1f d:/arc_gnu/bin/../lib/gcc/arc-elf32/7.1.1/../../../../arc-elf32/lib/em4_dmips\libc.a(lib_a-strcmp.o)
 .ARC.attributes
                0x00001ccb       0x22 d:/arc_gnu/bin/../lib/gcc/arc-elf32/7.1.1/../../../../arc-elf32/lib/em4_dmips\libc.a(lib_a-strcpy-bs.o)
 .ARC.attributes
                0x00001ced       0x2a d:/arc_gnu/bin/../lib/gcc/arc-elf32/7.1.1/../../../../arc-elf32/lib/em4_dmips\libc.a(lib_a-strlen-bs-norm.o)
 .ARC.attributes
                0x00001d17       0x25 d:/arc_gnu/bin/../lib/gcc/arc-elf32/7.1.1/../../../../arc-elf32/lib/em4_dmips\libc.a(lib_a-strncmp.o)
 .ARC.attributes
                0x00001d3c       0x22 d:/arc_gnu/bin/../lib/gcc/arc-elf32/7.1.1/../../../../arc-elf32/lib/em4_dmips\libc.a(lib_a-strncpy-bs.o)
 .ARC.attributes
                0x00001d5e       0x25 d:/arc_gnu/bin/../lib/gcc/arc-elf32/7.1.1/../../../../arc-elf32/lib/em4_dmips\libc.a(lib_a-strstr.o)
 .ARC.attributes
                0x00001d83       0x2f d:/arc_gnu/bin/../lib/gcc/arc-elf32/7.1.1/../../../../arc-elf32/lib/em4_dmips\libc.a(lib_a-strtol.o)
 .ARC.attributes
                0x00001db2       0x2a d:/arc_gnu/bin/../lib/gcc/arc-elf32/7.1.1/../../../../arc-elf32/lib/em4_dmips\libc.a(lib_a-svfprintf.o)
 .ARC.attributes
                0x00001ddc       0x25 d:/arc_gnu/bin/../lib/gcc/arc-elf32/7.1.1/../../../../arc-elf32/lib/em4_dmips\libc.a(lib_a-sysstat.o)
 .ARC.attributes
                0x00001e01       0x25 d:/arc_gnu/bin/../lib/gcc/arc-elf32/7.1.1/../../../../arc-elf32/lib/em4_dmips\libc.a(lib_a-time.o)
 .ARC.attributes
                0x00001e26       0x2a d:/arc_gnu/bin/../lib/gcc/arc-elf32/7.1.1/../../../../arc-elf32/lib/em4_dmips\libc.a(lib_a-tzcalc_limits.o)
 .ARC.attributes
                0x00001e50       0x25 d:/arc_gnu/bin/../lib/gcc/arc-elf32/7.1.1/../../../../arc-elf32/lib/em4_dmips\libc.a(lib_a-tzlock.o)
 .ARC.attributes
                0x00001e75       0x25 d:/arc_gnu/bin/../lib/gcc/arc-elf32/7.1.1/../../../../arc-elf32/lib/em4_dmips\libc.a(lib_a-tzset.o)
 .ARC.attributes
                0x00001e9a       0x27 d:/arc_gnu/bin/../lib/gcc/arc-elf32/7.1.1/../../../../arc-elf32/lib/em4_dmips\libc.a(lib_a-tzset_r.o)
 .ARC.attributes
                0x00001ec1       0x25 d:/arc_gnu/bin/../lib/gcc/arc-elf32/7.1.1/../../../../arc-elf32/lib/em4_dmips\libc.a(lib_a-tzvars.o)
 .ARC.attributes
                0x00001ee6       0x2a d:/arc_gnu/bin/../lib/gcc/arc-elf32/7.1.1/../../../../arc-elf32/lib/em4_dmips\libc.a(lib_a-vfprintf.o)
 .ARC.attributes
                0x00001f10       0x25 d:/arc_gnu/bin/../lib/gcc/arc-elf32/7.1.1/../../../../arc-elf32/lib/em4_dmips\libc.a(lib_a-vsnprintf.o)
 .ARC.attributes
                0x00001f35       0x25 d:/arc_gnu/bin/../lib/gcc/arc-elf32/7.1.1/../../../../arc-elf32/lib/em4_dmips\libc.a(lib_a-writer.o)
 .ARC.attributes
                0x00001f5a       0x25 d:/arc_gnu/bin/../lib/gcc/arc-elf32/7.1.1/../../../../arc-elf32/lib/em4_dmips\libc.a(lib_a-wsetup.o)
 .ARC.attributes
                0x00001f7f       0x25 d:/arc_gnu/bin/../lib/gcc/arc-elf32/7.1.1/../../../../arc-elf32/lib/em4_dmips\libc.a(lib_a-closer.o)
 .ARC.attributes
                0x00001fa4       0x32 d:/arc_gnu/bin/../lib/gcc/arc-elf32/7.1.1/../../../../arc-elf32/lib/em4_dmips\libc.a(lib_a-dtoa.o)
 .ARC.attributes
                0x00001fd6       0x25 d:/arc_gnu/bin/../lib/gcc/arc-elf32/7.1.1/../../../../arc-elf32/lib/em4_dmips\libc.a(lib_a-flags.o)
 .ARC.attributes
                0x00001ffb       0x32 d:/arc_gnu/bin/../lib/gcc/arc-elf32/7.1.1/../../../../arc-elf32/lib/em4_dmips\libc.a(lib_a-fvwrite.o)
 .ARC.attributes
                0x0000202d       0x28 d:/arc_gnu/bin/../lib/gcc/arc-elf32/7.1.1/../../../../arc-elf32/lib/em4_dmips\libc.a(lib_a-getenv_r.o)
 .ARC.attributes
                0x00002055       0x25 d:/arc_gnu/bin/../lib/gcc/arc-elf32/7.1.1/../../../../arc-elf32/lib/em4_dmips\libc.a(lib_a-gettimeofdayr.o)
 .ARC.attributes
                0x0000207a       0x25 d:/arc_gnu/bin/../lib/gcc/arc-elf32/7.1.1/../../../../arc-elf32/lib/em4_dmips\libc.a(lib_a-gettzinfo.o)
 .ARC.attributes
                0x0000209f       0x25 d:/arc_gnu/bin/../lib/gcc/arc-elf32/7.1.1/../../../../arc-elf32/lib/em4_dmips\libc.a(lib_a-isattyr.o)
 .ARC.attributes
                0x000020c4       0x25 d:/arc_gnu/bin/../lib/gcc/arc-elf32/7.1.1/../../../../arc-elf32/lib/em4_dmips\libc.a(lib_a-locale.o)
 .ARC.attributes
                0x000020e9       0x25 d:/arc_gnu/bin/../lib/gcc/arc-elf32/7.1.1/../../../../arc-elf32/lib/em4_dmips\libc.a(lib_a-localeconv.o)
 .ARC.attributes
                0x0000210e       0x25 d:/arc_gnu/bin/../lib/gcc/arc-elf32/7.1.1/../../../../arc-elf32/lib/em4_dmips\libc.a(lib_a-lseekr.o)
 .ARC.attributes
                0x00002133       0x25 d:/arc_gnu/bin/../lib/gcc/arc-elf32/7.1.1/../../../../arc-elf32/lib/em4_dmips\libc.a(lib_a-mbtowc_r.o)
 .ARC.attributes
                0x00002158       0x2a d:/arc_gnu/bin/../lib/gcc/arc-elf32/7.1.1/../../../../arc-elf32/lib/em4_dmips\libc.a(lib_a-mprec.o)
 .ARC.attributes
                0x00002182       0x25 d:/arc_gnu/bin/../lib/gcc/arc-elf32/7.1.1/../../../../arc-elf32/lib/em4_dmips\libc.a(lib_a-putc.o)
 .ARC.attributes
                0x000021a7       0x25 d:/arc_gnu/bin/../lib/gcc/arc-elf32/7.1.1/../../../../arc-elf32/lib/em4_dmips\libc.a(lib_a-readr.o)
 .ARC.attributes
                0x000021cc       0x25 d:/arc_gnu/bin/../lib/gcc/arc-elf32/7.1.1/../../../../arc-elf32/lib/em4_dmips\libc.a(lib_a-reallocr.o)
 .ARC.attributes
                0x000021f1       0x25 d:/arc_gnu/bin/../lib/gcc/arc-elf32/7.1.1/../../../../arc-elf32/lib/em4_dmips\libc.a(lib_a-siscanf.o)
 .ARC.attributes
                0x00002216       0x25 d:/arc_gnu/bin/../lib/gcc/arc-elf32/7.1.1/../../../../arc-elf32/lib/em4_dmips\libc.a(lib_a-statr.o)
 .ARC.attributes
                0x0000223b       0x2a d:/arc_gnu/bin/../lib/gcc/arc-elf32/7.1.1/../../../../arc-elf32/lib/em4_dmips\libc.a(lib_a-strchr-bs-norm.o)
 .ARC.attributes
                0x00002265       0x2f d:/arc_gnu/bin/../lib/gcc/arc-elf32/7.1.1/../../../../arc-elf32/lib/em4_dmips\libc.a(lib_a-strtoul.o)
 .ARC.attributes
                0x00002294       0x2a d:/arc_gnu/bin/../lib/gcc/arc-elf32/7.1.1/../../../../arc-elf32/lib/em4_dmips\libc.a(lib_a-svfiprintf.o)
 .ARC.attributes
                0x000022be       0x32 d:/arc_gnu/bin/../lib/gcc/arc-elf32/7.1.1/../../../../arc-elf32/lib/em4_dmips\libc.a(lib_a-svfiscanf.o)
 .ARC.attributes
                0x000022f0       0x28 d:/arc_gnu/bin/../lib/gcc/arc-elf32/7.1.1/../../../../arc-elf32/lib/em4_dmips\libc.a(lib_a-ungetc.o)
 .ARC.attributes
                0x00002318       0x2a d:/arc_gnu/bin/../lib/gcc/arc-elf32/7.1.1/../../../../arc-elf32/lib/em4_dmips\libc.a(lib_a-vfiprintf.o)
 .ARC.attributes
                0x00002342       0x25 d:/arc_gnu/bin/../lib/gcc/arc-elf32/7.1.1/../../../../arc-elf32/lib/em4_dmips\libc.a(lib_a-wbuf.o)
 .ARC.attributes
                0x00002367       0x25 d:/arc_gnu/bin/../lib/gcc/arc-elf32/7.1.1/../../../../arc-elf32/lib/em4_dmips\libc.a(lib_a-wctomb_r.o)
 .ARC.attributes
                0x0000238c       0x25 d:/arc_gnu/bin/../lib/gcc/arc-elf32/7.1.1/../../../../arc-elf32/lib/em4_dmips\libc.a(lib_a-ctype_.o)
 .ARC.attributes
                0x000023b1       0x25 d:/arc_gnu/bin/../lib/gcc/arc-elf32/7.1.1/../../../../arc-elf32/lib/em4_dmips\libc.a(lib_a-environ.o)
 .ARC.attributes
                0x000023d6       0x25 d:/arc_gnu/bin/../lib/gcc/arc-elf32/7.1.1/../../../../arc-elf32/lib/em4_dmips\libc.a(lib_a-envlock.o)
 .ARC.attributes
                0x000023fb       0x25 d:/arc_gnu/bin/../lib/gcc/arc-elf32/7.1.1/../../../../arc-elf32/lib/em4_dmips\libc.a(lib_a-fputwc.o)
 .ARC.attributes
                0x00002420       0x25 d:/arc_gnu/bin/../lib/gcc/arc-elf32/7.1.1/../../../../arc-elf32/lib/em4_dmips\libc.a(lib_a-iswspace.o)
 .ARC.attributes
                0x00002445       0x25 d:/arc_gnu/bin/../lib/gcc/arc-elf32/7.1.1/../../../../arc-elf32/lib/em4_dmips\libc.a(lib_a-mbrtowc.o)
 .ARC.attributes
                0x0000246a       0x25 d:/arc_gnu/bin/../lib/gcc/arc-elf32/7.1.1/../../../../arc-elf32/lib/em4_dmips\libc.a(lib_a-sccl.o)
 .ARC.attributes
                0x0000248f       0x2a d:/arc_gnu/bin/../lib/gcc/arc-elf32/7.1.1/../../../../arc-elf32/lib/em4_dmips\libc.a(lib_a-strtoll.o)
 .ARC.attributes
                0x000024b9       0x2a d:/arc_gnu/bin/../lib/gcc/arc-elf32/7.1.1/../../../../arc-elf32/lib/em4_dmips\libc.a(lib_a-strtoull.o)
 .ARC.attributes
                0x000024e3       0x25 d:/arc_gnu/bin/../lib/gcc/arc-elf32/7.1.1/../../../../arc-elf32/lib/em4_dmips\libc.a(lib_a-wcrtomb.o)
 .ARC.attributes
                0x00002508       0x3a d:/arc_gnu/bin/../lib/gcc/arc-elf32/7.1.1/em4_dmips\libgcc.a(_udivdi3.o)
 .ARC.attributes
                0x00002542       0x3a d:/arc_gnu/bin/../lib/gcc/arc-elf32/7.1.1/em4_dmips\libgcc.a(_umoddi3.o)
 .ARC.attributes
                0x0000257c       0x32 d:/arc_gnu/bin/../lib/gcc/arc-elf32/7.1.1/em4_dmips\libgcc.a(fp-bit.o)
 .ARC.attributes
                0x000025ae       0x32 d:/arc_gnu/bin/../lib/gcc/arc-elf32/7.1.1/em4_dmips\libgcc.a(dp-bit.o)
 .ARC.attributes
                0x000025e0       0x23 obj_emsk_22/gnu_arcem7d/library/clib/embarc_sbrk.o
 .ARC.attributes
                0x00002603       0x28 obj_emsk_22/gnu_arcem7d/library/clib/embarc_syscalls.o
 .ARC.attributes
                0x0000262b       0x26 obj_emsk_22/gnu_arcem7d/library/clib/embarc_target.o
 .ARC.attributes
                0x00002651       0x2a d:/arc_gnu/bin/../lib/gcc/arc-elf32/7.1.1/../../../../arc-elf32/lib/em4_dmips\libc.a(lib_a-mktime.o)
 .ARC.attributes
                0x0000267b       0x25 d:/arc_gnu/bin/../lib/gcc/arc-elf32/7.1.1/../../../../arc-elf32/lib/em4_dmips\libc.a(lib_a-sscanf.o)
 .ARC.attributes
                0x000026a0       0x2a d:/arc_gnu/bin/../lib/gcc/arc-elf32/7.1.1/../../../../arc-elf32/lib/em4_dmips\libc.a(lib_a-svfscanf.o)
 .ARC.attributes
                0x000026ca       0x2d d:/arc_gnu/bin/../lib/gcc/arc-elf32/7.1.1/../../../../arc-elf32/lib/em4_dmips\libc.a(lib_a-div.o)
 .ARC.attributes
                0x000026f7       0x25 d:/arc_gnu/bin/../lib/gcc/arc-elf32/7.1.1/../../../../arc-elf32/lib/em4_dmips\libc.a(lib_a-sf_nan.o)
 .ARC.attributes
                0x0000271c       0x2a d:/arc_gnu/bin/../lib/gcc/arc-elf32/7.1.1/../../../../arc-elf32/lib/em4_dmips\libc.a(lib_a-strtod.o)
 .ARC.attributes
                0x00002746       0x2a d:/arc_gnu/bin/../lib/gcc/arc-elf32/7.1.1/../../../../arc-elf32/lib/em4_dmips\libc.a(lib_a-gdtoa-gethex.o)
 .ARC.attributes
                0x00002770       0x28 d:/arc_gnu/bin/../lib/gcc/arc-elf32/7.1.1/../../../../arc-elf32/lib/em4_dmips\libc.a(lib_a-gdtoa-hexnan.o)

.debug_frame    0x00000000    0x1b29c
 .debug_frame   0x00000000       0x90 obj_emsk_22/gnu_arcem7d/application/./Source/main.o
 .debug_frame   0x00000090       0x98 obj_emsk_22/gnu_arcem7d/board/board.o
 .debug_frame   0x00000128       0xc0 obj_emsk_22/gnu_arcem7d/arc/startup/arc_cxx_support.o
 .debug_frame   0x000001e8       0x38 obj_emsk_22/gnu_arcem7d/board/emsk/common/emsk_init.o
 .debug_frame   0x00000220      0x1c0 obj_emsk_22/gnu_arcem7d/board/emsk/drivers/mux/mux.o
 .debug_frame   0x000003e0      0x4c4 obj_emsk_22/gnu_arcem7d/board/emsk/drivers/pmwifi/pmwifi.o
 .debug_frame   0x000008a4      0x100 obj_emsk_22/gnu_arcem7d/middleware/common/console_io.o
 .debug_frame   0x000009a4      0x1ec obj_emsk_22/gnu_arcem7d/middleware/common/xprintf/xprintf.o
 .debug_frame   0x00000b90      0x9cc obj_emsk_22/gnu_arcem7d/middleware/fatfs/src/ff.o
 .debug_frame   0x0000155c       0x50 obj_emsk_22/gnu_arcem7d/middleware/fatfs/src/ff_unicode.o
 .debug_frame   0x000015ac      0x1d8 obj_emsk_22/gnu_arcem7d/middleware/lwip-contrib/ports/arc/lwip_pmwifi.o
 .debug_frame   0x00001784       0xe8 obj_emsk_22/gnu_arcem7d/middleware/lwip-contrib/ports/arc/netif/pmwifi_netif.o
 .debug_frame   0x0000186c      0x368 obj_emsk_22/gnu_arcem7d/middleware/lwip-contrib/ports/arc/sys_arch/freertos/sys_arch.o
 .debug_frame   0x00001bd4       0x30 obj_emsk_22/gnu_arcem7d/middleware/vending-machine/source/led_task.o
 .debug_frame   0x00001c04       0x5c obj_emsk_22/gnu_arcem7d/middleware/vending-machine/source/temp_task.o
 .debug_frame   0x00001c60       0x5c obj_emsk_22/gnu_arcem7d/middleware/vending-machine/source/vm_task.o
 .debug_frame   0x00001cbc      0x254 obj_emsk_22/gnu_arcem7d/middleware/vending-machine/source/oled_task.o
 .debug_frame   0x00001f10       0x5c obj_emsk_22/gnu_arcem7d/middleware/vending-machine/source/numpad_task.o
 .debug_frame   0x00001f6c      0x120 obj_emsk_22/gnu_arcem7d/middleware/vending-machine/source/communication_task.o
 .debug_frame   0x0000208c       0x38 obj_emsk_22/gnu_arcem7d/os/freertos/portable/synopsys/arc/arc_freertos_exceptions.o
 .debug_frame   0x000020c4      0x7c4 obj_emsk_22/gnu_arcem7d/os/freertos/tasks.o
 .debug_frame   0x00002888       0xb0 obj_emsk_22/gnu_arcem7d/os/freertos/list.o
 .debug_frame   0x00002938      0x408 obj_emsk_22/gnu_arcem7d/os/freertos/queue.o
 .debug_frame   0x00002d40      0x114 obj_emsk_22/gnu_arcem7d/arc/arc_timer.o
 .debug_frame   0x00002e54      0x2f8 obj_emsk_22/gnu_arcem7d/arc/arc_cache.o
 .debug_frame   0x0000314c      0x628 obj_emsk_22/gnu_arcem7d/arc/arc_exception.o
 .debug_frame   0x00003774       0x2c obj_emsk_22/gnu_arcem7d/library/clib/embarc_misc.o
 .debug_frame   0x000037a0      0x4a4 obj_emsk_22/gnu_arcem7d/board/emsk/drivers/ip/designware/gpio/dw_gpio_obj.o
 .debug_frame   0x00003c44      0x394 obj_emsk_22/gnu_arcem7d/board/emsk/drivers/ip/designware/uart/dw_uart_obj.o
 .debug_frame   0x00003fd8      0x410 obj_emsk_22/gnu_arcem7d/device/ip/designware/gpio/dw_gpio.o
 .debug_frame   0x000043e8      0x4f8 obj_emsk_22/gnu_arcem7d/device/ip/designware/uart/dw_uart.o
 .debug_frame   0x000048e0      0x144 obj_emsk_22/gnu_arcem7d/device/peripheral/sensor/temperature/adt7420/adt7420.o
 .debug_frame   0x00004a24      0x62c obj_emsk_22/gnu_arcem7d/device/peripheral/wifi/rw009/rw009.o
 .debug_frame   0x00005050      0x188 obj_emsk_22/gnu_arcem7d/board/emsk/common/emsk_gpio.o
 .debug_frame   0x000051d8      0x140 obj_emsk_22/gnu_arcem7d/board/emsk/common/emsk_timer.o
 .debug_frame   0x00005318       0x84 obj_emsk_22/gnu_arcem7d/board/emsk/drivers/sdcard/emsk_sdcard.o
 .debug_frame   0x0000539c      0x10c obj_emsk_22/gnu_arcem7d/middleware/fatfs/src/diskio.o
 .debug_frame   0x000054a8      0x4d4 obj_emsk_22/gnu_arcem7d/middleware/lwip/src/core/pbuf.o
 .debug_frame   0x0000597c      0x364 obj_emsk_22/gnu_arcem7d/middleware/lwip/src/core/dns.o
 .debug_frame   0x00005ce0      0x140 obj_emsk_22/gnu_arcem7d/middleware/lwip/src/core/mem.o
 .debug_frame   0x00005e20      0x2a0 obj_emsk_22/gnu_arcem7d/middleware/lwip/src/core/udp.o
 .debug_frame   0x000060c0       0xdc obj_emsk_22/gnu_arcem7d/middleware/lwip/src/core/def.o
 .debug_frame   0x0000619c      0x738 obj_emsk_22/gnu_arcem7d/middleware/lwip/src/core/tcp.o
 .debug_frame   0x000068d4      0x29c obj_emsk_22/gnu_arcem7d/middleware/lwip/src/core/netif.o
 .debug_frame   0x00006b70      0x1e4 obj_emsk_22/gnu_arcem7d/middleware/lwip/src/core/timeouts.o
 .debug_frame   0x00006d54      0x1c8 obj_emsk_22/gnu_arcem7d/middleware/lwip/src/core/tcp_in.o
 .debug_frame   0x00006f1c      0x188 obj_emsk_22/gnu_arcem7d/middleware/lwip/src/core/memp.o
 .debug_frame   0x000070a4      0x1b0 obj_emsk_22/gnu_arcem7d/middleware/lwip/src/core/inet_chksum.o
 .debug_frame   0x00007254       0xe0 obj_emsk_22/gnu_arcem7d/middleware/lwip/src/core/ipv4/icmp.o
 .debug_frame   0x00007334      0x108 obj_emsk_22/gnu_arcem7d/middleware/lwip/src/core/ipv4/ip4.o
 .debug_frame   0x0000743c      0x120 obj_emsk_22/gnu_arcem7d/middleware/lwip/src/core/ipv4/ip4_addr.o
 .debug_frame   0x0000755c      0x29c obj_emsk_22/gnu_arcem7d/middleware/lwip/src/core/ipv4/etharp.o
 .debug_frame   0x000077f8      0x67c obj_emsk_22/gnu_arcem7d/middleware/lwip/src/core/ipv4/dhcp.o
 .debug_frame   0x00007e74      0x214 obj_emsk_22/gnu_arcem7d/middleware/lwip/src/core/ipv4/ip4_frag.o
 .debug_frame   0x00008088       0x90 obj_emsk_22/gnu_arcem7d/middleware/lwip/src/netif/ethernet.o
 .debug_frame   0x00008118      0x250 obj_emsk_22/gnu_arcem7d/middleware/lwip/src/api/tcpip.o
 .debug_frame   0x00008368      0x2f0 obj_emsk_22/gnu_arcem7d/middleware/mbedtls/library/ctr_drbg.o
 .debug_frame   0x00008658      0x6e0 obj_emsk_22/gnu_arcem7d/middleware/mbedtls/library/x509_crt.o
 .debug_frame   0x00008d38      0x3b0 obj_emsk_22/gnu_arcem7d/middleware/mbedtls/library/x509.o
 .debug_frame   0x000090e8      0x138 obj_emsk_22/gnu_arcem7d/middleware/mbedtls/library/ssl_ciphersuites.o
 .debug_frame   0x00009220       0x64 obj_emsk_22/gnu_arcem7d/middleware/mbedtls/library/threading.o
 .debug_frame   0x00009284      0x328 obj_emsk_22/gnu_arcem7d/middleware/mbedtls/library/pk.o
 .debug_frame   0x000095ac      0x258 obj_emsk_22/gnu_arcem7d/middleware/mbedtls/library/asn1parse.o
 .debug_frame   0x00009804      0x4a8 obj_emsk_22/gnu_arcem7d/middleware/mbedtls/library/rsa.o
 .debug_frame   0x00009cac      0x3e0 obj_emsk_22/gnu_arcem7d/middleware/mbedtls/library/oid.o
 .debug_frame   0x0000a08c      0x198 obj_emsk_22/gnu_arcem7d/middleware/mbedtls/library/sha1.o
 .debug_frame   0x0000a224      0x39c obj_emsk_22/gnu_arcem7d/middleware/mbedtls/library/pkparse.o
 .debug_frame   0x0000a5c0     0x1b28 obj_emsk_22/gnu_arcem7d/middleware/mbedtls/library/ssl_tls.o
 .debug_frame   0x0000c0e8      0x29c obj_emsk_22/gnu_arcem7d/middleware/mbedtls/library/dhm.o
 .debug_frame   0x0000c384      0x4a0 obj_emsk_22/gnu_arcem7d/middleware/mbedtls/library/cipher.o
 .debug_frame   0x0000c824      0x208 obj_emsk_22/gnu_arcem7d/middleware/mbedtls/library/sha512.o
 .debug_frame   0x0000ca2c      0x238 obj_emsk_22/gnu_arcem7d/middleware/mbedtls/library/entropy.o
 .debug_frame   0x0000cc64      0x240 obj_emsk_22/gnu_arcem7d/middleware/mbedtls/library/aes.o
 .debug_frame   0x0000cea4      0x1c0 obj_emsk_22/gnu_arcem7d/middleware/mbedtls/library/debug.o
 .debug_frame   0x0000d064       0xd8 obj_emsk_22/gnu_arcem7d/middleware/mbedtls/library/havege.o
 .debug_frame   0x0000d13c       0x68 obj_emsk_22/gnu_arcem7d/middleware/mbedtls/library/entropy_poll.o
 .debug_frame   0x0000d1a4       0x3c obj_emsk_22/gnu_arcem7d/middleware/mbedtls/library/error.o
 .debug_frame   0x0000d1e0      0x1bc obj_emsk_22/gnu_arcem7d/middleware/mbedtls/library/pem.o
 .debug_frame   0x0000d39c      0x138 obj_emsk_22/gnu_arcem7d/middleware/mbedtls/library/pkcs12.o
 .debug_frame   0x0000d4d4       0xc0 obj_emsk_22/gnu_arcem7d/middleware/mbedtls/embarc/threading_alt.o
 .debug_frame   0x0000d594      0x104 obj_emsk_22/gnu_arcem7d/middleware/mbedtls/embarc/timing_alt.o
 .debug_frame   0x0000d698      0x230 obj_emsk_22/gnu_arcem7d/middleware/mbedtls/embarc/net_alt.o
 .debug_frame   0x0000d8c8      0x15c obj_emsk_22/gnu_arcem7d/middleware/u8glib/csrc/u8g_com_embarc_ssd1306_spi.o
 .debug_frame   0x0000da24       0x68 obj_emsk_22/gnu_arcem7d/middleware/u8glib/csrc/u8g_dev_embarc_ssd1306_128x64.o
 .debug_frame   0x0000da8c      0x110 obj_emsk_22/gnu_arcem7d/middleware/u8glib/csrc/u8g_pb.o
 .debug_frame   0x0000db9c      0x144 obj_emsk_22/gnu_arcem7d/middleware/u8glib/csrc/u8g_pb16v1.o
 .debug_frame   0x0000dce0      0xcec obj_emsk_22/gnu_arcem7d/middleware/u8glib/csrc/u8g_font.o
 .debug_frame   0x0000e9cc      0x124 obj_emsk_22/gnu_arcem7d/middleware/u8glib/csrc/u8g_pb8v1.o
 .debug_frame   0x0000eaf0      0x19c obj_emsk_22/gnu_arcem7d/middleware/u8glib/csrc/u8g_rect.o
 .debug_frame   0x0000ec8c      0x5d8 obj_emsk_22/gnu_arcem7d/middleware/u8glib/csrc/u8g_ll_api.o
 .debug_frame   0x0000f264       0x80 obj_emsk_22/gnu_arcem7d/middleware/u8glib/csrc/u8g_delay.o
 .debug_frame   0x0000f2e4       0x3c obj_emsk_22/gnu_arcem7d/middleware/u8glib/csrc/u8g_clip.o
 .debug_frame   0x0000f320       0x3c obj_emsk_22/gnu_arcem7d/middleware/u8glib/csrc/u8g_line.o
 .debug_frame   0x0000f35c       0x78 obj_emsk_22/gnu_arcem7d/middleware/u8glib/csrc/u8g_state.o
 .debug_frame   0x0000f3d4      0x118 obj_emsk_22/gnu_arcem7d/middleware/u8glib/csrc/u8g_circle.o
 .debug_frame   0x0000f4ec      0x134 obj_emsk_22/gnu_arcem7d/os/freertos/portable/synopsys/arc/port.o
 .debug_frame   0x0000f620       0xc0 obj_emsk_22/gnu_arcem7d/os/freertos/portable/heap_sel.o
 .debug_frame   0x0000f6e0       0xb8 obj_emsk_22/gnu_arcem7d/library/clib/fatfs_dirent.o
 .debug_frame   0x0000f798      0x284 obj_emsk_22/gnu_arcem7d/board/emsk/drivers/ip/designware/iic/dw_iic_obj.o
 .debug_frame   0x0000fa1c      0x2a8 obj_emsk_22/gnu_arcem7d/board/emsk/drivers/ip/designware/spi/dw_spi_obj.o
 .debug_frame   0x0000fcc4      0x8c8 obj_emsk_22/gnu_arcem7d/device/ip/designware/iic/dw_iic.o
 .debug_frame   0x0001058c      0x7f0 obj_emsk_22/gnu_arcem7d/device/ip/designware/spi/dw_spi.o
 .debug_frame   0x00010d7c      0x138 obj_emsk_22/gnu_arcem7d/board/emsk/drivers/sdcard/emsk_sdcard_spi.o
 .debug_frame   0x00010eb4      0x228 obj_emsk_22/gnu_arcem7d/middleware/fatfs/src/diskdrv/ff_sdcard_spi.o
 .debug_frame   0x000110dc      0x33c obj_emsk_22/gnu_arcem7d/middleware/lwip/src/core/tcp_out.o
 .debug_frame   0x00011418      0x1d8 obj_emsk_22/gnu_arcem7d/middleware/lwip/src/core/raw.o
 .debug_frame   0x000115f0       0x38 obj_emsk_22/gnu_arcem7d/middleware/lwip/src/core/init.o
 .debug_frame   0x00011628      0x5b0 obj_emsk_22/gnu_arcem7d/middleware/lwip/src/api/sockets.o
 .debug_frame   0x00011bd8       0x50 obj_emsk_22/gnu_arcem7d/middleware/lwip/src/api/err.o
 .debug_frame   0x00011c28      0x1bc obj_emsk_22/gnu_arcem7d/middleware/lwip/src/api/netbuf.o
 .debug_frame   0x00011de4      0x378 obj_emsk_22/gnu_arcem7d/middleware/lwip/src/api/api_lib.o
 .debug_frame   0x0001215c       0xe4 obj_emsk_22/gnu_arcem7d/middleware/lwip/src/api/netdb.o
 .debug_frame   0x00012240      0x964 obj_emsk_22/gnu_arcem7d/middleware/mbedtls/library/bignum.o
 .debug_frame   0x00012ba4      0x738 obj_emsk_22/gnu_arcem7d/middleware/mbedtls/library/ssl_cli.o
 .debug_frame   0x000132dc      0x4f4 obj_emsk_22/gnu_arcem7d/middleware/mbedtls/library/pk_wrap.o
 .debug_frame   0x000137d0       0x7c obj_emsk_22/gnu_arcem7d/middleware/mbedtls/library/base64.o
 .debug_frame   0x0001384c      0x3a8 obj_emsk_22/gnu_arcem7d/middleware/mbedtls/library/md.o
 .debug_frame   0x00013bf4      0x15c obj_emsk_22/gnu_arcem7d/middleware/mbedtls/library/ccm.o
 .debug_frame   0x00013d50      0x32c obj_emsk_22/gnu_arcem7d/middleware/mbedtls/library/ecp_curves.o
 .debug_frame   0x0001407c       0xec obj_emsk_22/gnu_arcem7d/middleware/mbedtls/library/arc4.o
 .debug_frame   0x00014168      0x8dc obj_emsk_22/gnu_arcem7d/middleware/mbedtls/library/ecp.o
 .debug_frame   0x00014a44      0x1c0 obj_emsk_22/gnu_arcem7d/middleware/mbedtls/library/ecdh.o
 .debug_frame   0x00014c04      0x7d0 obj_emsk_22/gnu_arcem7d/middleware/mbedtls/library/cipher_wrap.o
 .debug_frame   0x000153d4      0x36c obj_emsk_22/gnu_arcem7d/middleware/mbedtls/library/des.o
 .debug_frame   0x00015740      0x198 obj_emsk_22/gnu_arcem7d/middleware/mbedtls/library/md5.o
 .debug_frame   0x000158d8       0xc0 obj_emsk_22/gnu_arcem7d/middleware/mbedtls/library/pkcs5.o
 .debug_frame   0x00015998      0x2b4 obj_emsk_22/gnu_arcem7d/middleware/mbedtls/library/gcm.o
 .debug_frame   0x00015c4c      0x198 obj_emsk_22/gnu_arcem7d/middleware/mbedtls/library/sha256.o
 .debug_frame   0x00015de4      0x79c obj_emsk_22/gnu_arcem7d/middleware/mbedtls/library/ssl_srv.o
 .debug_frame   0x00016580      0x218 obj_emsk_22/gnu_arcem7d/middleware/mbedtls/library/ecdsa.o
 .debug_frame   0x00016798      0x678 obj_emsk_22/gnu_arcem7d/middleware/mbedtls/library/md_wrap.o
 .debug_frame   0x00016e10      0x2a4 obj_emsk_22/gnu_arcem7d/middleware/mbedtls/library/hmac_drbg.o
 .debug_frame   0x000170b4      0x108 obj_emsk_22/gnu_arcem7d/middleware/u8glib/csrc/u8g_com_embarc_ssd1306_i2c.o
 .debug_frame   0x000171bc      0x1a4 obj_emsk_22/gnu_arcem7d/middleware/u8glib/csrc/u8g_com_api.o
 .debug_frame   0x00017360       0x84 obj_emsk_22/gnu_arcem7d/middleware/u8glib/csrc/u8g_page.o
 .debug_frame   0x000173e4      0x518 obj_emsk_22/gnu_arcem7d/middleware/lwip/src/api/api_msg.o
 .debug_frame   0x000178fc      0x1a0 obj_emsk_22/gnu_arcem7d/middleware/mbedtls/library/ripemd160.o
 .debug_frame   0x00017a9c      0x1d4 obj_emsk_22/gnu_arcem7d/middleware/mbedtls/library/camellia.o
 .debug_frame   0x00017c70      0x260 obj_emsk_22/gnu_arcem7d/middleware/mbedtls/library/asn1write.o
 .debug_frame   0x00017ed0      0x1d4 obj_emsk_22/gnu_arcem7d/middleware/mbedtls/library/blowfish.o
 .debug_frame   0x000180a4       0x30 d:/arc_gnu/bin/../lib/gcc/arc-elf32/7.1.1/../../../../arc-elf32/lib/em4_dmips\libc.a(lib_a-atoi.o)
 .debug_frame   0x000180d4       0x20 d:/arc_gnu/bin/../lib/gcc/arc-elf32/7.1.1/../../../../arc-elf32/lib/em4_dmips\libc.a(lib_a-calloc.o)
 .debug_frame   0x000180f4       0x3c d:/arc_gnu/bin/../lib/gcc/arc-elf32/7.1.1/../../../../arc-elf32/lib/em4_dmips\libc.a(lib_a-callocr.o)
 .debug_frame   0x00018130       0x60 d:/arc_gnu/bin/../lib/gcc/arc-elf32/7.1.1/../../../../arc-elf32/lib/em4_dmips\libc.a(lib_a-fclose.o)
 .debug_frame   0x00018190       0x88 d:/arc_gnu/bin/../lib/gcc/arc-elf32/7.1.1/../../../../arc-elf32/lib/em4_dmips\libc.a(lib_a-fflush.o)
 .debug_frame   0x00018218       0x6c d:/arc_gnu/bin/../lib/gcc/arc-elf32/7.1.1/../../../../arc-elf32/lib/em4_dmips\libc.a(lib_a-fgets.o)
 .debug_frame   0x00018284      0x15c d:/arc_gnu/bin/../lib/gcc/arc-elf32/7.1.1/../../../../arc-elf32/lib/em4_dmips\libc.a(lib_a-findfp.o)
 .debug_frame   0x000183e0       0x58 d:/arc_gnu/bin/../lib/gcc/arc-elf32/7.1.1/../../../../arc-elf32/lib/em4_dmips\libc.a(lib_a-fopen.o)
 .debug_frame   0x00018438       0x50 d:/arc_gnu/bin/../lib/gcc/arc-elf32/7.1.1/../../../../arc-elf32/lib/em4_dmips\libc.a(lib_a-fprintf.o)
 .debug_frame   0x00018488       0x70 d:/arc_gnu/bin/../lib/gcc/arc-elf32/7.1.1/../../../../arc-elf32/lib/em4_dmips\libc.a(lib_a-fread.o)
 .debug_frame   0x000184f8       0xa0 d:/arc_gnu/bin/../lib/gcc/arc-elf32/7.1.1/../../../../arc-elf32/lib/em4_dmips\libc.a(lib_a-freer.o)
 .debug_frame   0x00018598       0x30 d:/arc_gnu/bin/../lib/gcc/arc-elf32/7.1.1/../../../../arc-elf32/lib/em4_dmips\libc.a(lib_a-fseek.o)
 .debug_frame   0x000185c8       0x68 d:/arc_gnu/bin/../lib/gcc/arc-elf32/7.1.1/../../../../arc-elf32/lib/em4_dmips\libc.a(lib_a-fseeko.o)
 .debug_frame   0x00018630       0x3c d:/arc_gnu/bin/../lib/gcc/arc-elf32/7.1.1/../../../../arc-elf32/lib/em4_dmips\libc.a(lib_a-fstatr.o)
 .debug_frame   0x0001866c       0x30 d:/arc_gnu/bin/../lib/gcc/arc-elf32/7.1.1/../../../../arc-elf32/lib/em4_dmips\libc.a(lib_a-ftell.o)
 .debug_frame   0x0001869c       0x58 d:/arc_gnu/bin/../lib/gcc/arc-elf32/7.1.1/../../../../arc-elf32/lib/em4_dmips\libc.a(lib_a-ftello.o)
 .debug_frame   0x000186f4       0x84 d:/arc_gnu/bin/../lib/gcc/arc-elf32/7.1.1/../../../../arc-elf32/lib/em4_dmips\libc.a(lib_a-fwalk.o)
 .debug_frame   0x00018778       0x5c d:/arc_gnu/bin/../lib/gcc/arc-elf32/7.1.1/../../../../arc-elf32/lib/em4_dmips\libc.a(lib_a-fwrite.o)
 .debug_frame   0x000187d4       0x20 d:/arc_gnu/bin/../lib/gcc/arc-elf32/7.1.1/../../../../arc-elf32/lib/em4_dmips\libc.a(lib_a-gmtime.o)
 .debug_frame   0x000187f4       0x20 d:/arc_gnu/bin/../lib/gcc/arc-elf32/7.1.1/../../../../arc-elf32/lib/em4_dmips\libc.a(lib_a-gmtime_r.o)
 .debug_frame   0x00018814       0x20 d:/arc_gnu/bin/../lib/gcc/arc-elf32/7.1.1/../../../../arc-elf32/lib/em4_dmips\libc.a(lib_a-lcltime.o)
 .debug_frame   0x00018834       0x48 d:/arc_gnu/bin/../lib/gcc/arc-elf32/7.1.1/../../../../arc-elf32/lib/em4_dmips\libc.a(lib_a-lcltime_r.o)
 .debug_frame   0x0001887c       0xa4 d:/arc_gnu/bin/../lib/gcc/arc-elf32/7.1.1/../../../../arc-elf32/lib/em4_dmips\libc.a(lib_a-makebuf.o)
 .debug_frame   0x00018920       0x30 d:/arc_gnu/bin/../lib/gcc/arc-elf32/7.1.1/../../../../arc-elf32/lib/em4_dmips\libc.a(lib_a-malloc.o)
 .debug_frame   0x00018950       0x50 d:/arc_gnu/bin/../lib/gcc/arc-elf32/7.1.1/../../../../arc-elf32/lib/em4_dmips\libc.a(lib_a-mallocr.o)
 .debug_frame   0x000189a0       0x20 d:/arc_gnu/bin/../lib/gcc/arc-elf32/7.1.1/../../../../arc-elf32/lib/em4_dmips\libc.a(lib_a-memchr.o)
 .debug_frame   0x000189c0       0x20 d:/arc_gnu/bin/../lib/gcc/arc-elf32/7.1.1/../../../../arc-elf32/lib/em4_dmips\libc.a(lib_a-memmove.o)
 .debug_frame   0x000189e0       0x30 d:/arc_gnu/bin/../lib/gcc/arc-elf32/7.1.1/../../../../arc-elf32/lib/em4_dmips\libc.a(lib_a-mlock.o)
 .debug_frame   0x00018a10       0x3c d:/arc_gnu/bin/../lib/gcc/arc-elf32/7.1.1/../../../../arc-elf32/lib/em4_dmips\libc.a(lib_a-openr.o)
 .debug_frame   0x00018a4c       0x50 d:/arc_gnu/bin/../lib/gcc/arc-elf32/7.1.1/../../../../arc-elf32/lib/em4_dmips\libc.a(lib_a-printf.o)
 .debug_frame   0x00018a9c       0x30 d:/arc_gnu/bin/../lib/gcc/arc-elf32/7.1.1/../../../../arc-elf32/lib/em4_dmips\libc.a(lib_a-putchar.o)
 .debug_frame   0x00018acc       0x50 d:/arc_gnu/bin/../lib/gcc/arc-elf32/7.1.1/../../../../arc-elf32/lib/em4_dmips\libc.a(lib_a-puts.o)
 .debug_frame   0x00018b1c       0x30 d:/arc_gnu/bin/../lib/gcc/arc-elf32/7.1.1/../../../../arc-elf32/lib/em4_dmips\libc.a(lib_a-rand.o)
 .debug_frame   0x00018b4c       0x74 d:/arc_gnu/bin/../lib/gcc/arc-elf32/7.1.1/../../../../arc-elf32/lib/em4_dmips\libc.a(lib_a-reent.o)
 .debug_frame   0x00018bc0       0x54 d:/arc_gnu/bin/../lib/gcc/arc-elf32/7.1.1/../../../../arc-elf32/lib/em4_dmips\libc.a(lib_a-refill.o)
 .debug_frame   0x00018c14       0x3c d:/arc_gnu/bin/../lib/gcc/arc-elf32/7.1.1/../../../../arc-elf32/lib/em4_dmips\libc.a(lib_a-sbrkr.o)
 .debug_frame   0x00018c50       0x88 d:/arc_gnu/bin/../lib/gcc/arc-elf32/7.1.1/../../../../arc-elf32/lib/em4_dmips\libc.a(lib_a-snprintf.o)
 .debug_frame   0x00018cd8       0x58 d:/arc_gnu/bin/../lib/gcc/arc-elf32/7.1.1/../../../../arc-elf32/lib/em4_dmips\libc.a(lib_a-sprintf.o)
 .debug_frame   0x00018d30       0xb8 d:/arc_gnu/bin/../lib/gcc/arc-elf32/7.1.1/../../../../arc-elf32/lib/em4_dmips\libc.a(lib_a-stdio.o)
 .debug_frame   0x00018de8       0x34 d:/arc_gnu/bin/../lib/gcc/arc-elf32/7.1.1/../../../../arc-elf32/lib/em4_dmips\libc.a(lib_a-strcat.o)
 .debug_frame   0x00018e1c       0x20 d:/arc_gnu/bin/../lib/gcc/arc-elf32/7.1.1/../../../../arc-elf32/lib/em4_dmips\libc.a(lib_a-strncmp.o)
 .debug_frame   0x00018e3c       0xcc d:/arc_gnu/bin/../lib/gcc/arc-elf32/7.1.1/../../../../arc-elf32/lib/em4_dmips\libc.a(lib_a-strstr.o)
 .debug_frame   0x00018f08       0x84 d:/arc_gnu/bin/../lib/gcc/arc-elf32/7.1.1/../../../../arc-elf32/lib/em4_dmips\libc.a(lib_a-strtol.o)
 .debug_frame   0x00018f8c       0x70 d:/arc_gnu/bin/../lib/gcc/arc-elf32/7.1.1/../../../../arc-elf32/lib/em4_dmips\libc.a(lib_a-svfprintf.o)
 .debug_frame   0x00018ffc       0x20 d:/arc_gnu/bin/../lib/gcc/arc-elf32/7.1.1/../../../../arc-elf32/lib/em4_dmips\libc.a(lib_a-sysstat.o)
 .debug_frame   0x0001901c       0x3c d:/arc_gnu/bin/../lib/gcc/arc-elf32/7.1.1/../../../../arc-elf32/lib/em4_dmips\libc.a(lib_a-time.o)
 .debug_frame   0x00019058       0x3c d:/arc_gnu/bin/../lib/gcc/arc-elf32/7.1.1/../../../../arc-elf32/lib/em4_dmips\libc.a(lib_a-tzcalc_limits.o)
 .debug_frame   0x00019094       0x30 d:/arc_gnu/bin/../lib/gcc/arc-elf32/7.1.1/../../../../arc-elf32/lib/em4_dmips\libc.a(lib_a-tzlock.o)
 .debug_frame   0x000190c4       0x3c d:/arc_gnu/bin/../lib/gcc/arc-elf32/7.1.1/../../../../arc-elf32/lib/em4_dmips\libc.a(lib_a-tzset.o)
 .debug_frame   0x00019100       0x84 d:/arc_gnu/bin/../lib/gcc/arc-elf32/7.1.1/../../../../arc-elf32/lib/em4_dmips\libc.a(lib_a-tzset_r.o)
 .debug_frame   0x00019184       0xb4 d:/arc_gnu/bin/../lib/gcc/arc-elf32/7.1.1/../../../../arc-elf32/lib/em4_dmips\libc.a(lib_a-vfprintf.o)
 .debug_frame   0x00019238       0x58 d:/arc_gnu/bin/../lib/gcc/arc-elf32/7.1.1/../../../../arc-elf32/lib/em4_dmips\libc.a(lib_a-vsnprintf.o)
 .debug_frame   0x00019290       0x3c d:/arc_gnu/bin/../lib/gcc/arc-elf32/7.1.1/../../../../arc-elf32/lib/em4_dmips\libc.a(lib_a-writer.o)
 .debug_frame   0x000192cc       0x3c d:/arc_gnu/bin/../lib/gcc/arc-elf32/7.1.1/../../../../arc-elf32/lib/em4_dmips\libc.a(lib_a-wsetup.o)
 .debug_frame   0x00019308       0x3c d:/arc_gnu/bin/../lib/gcc/arc-elf32/7.1.1/../../../../arc-elf32/lib/em4_dmips\libc.a(lib_a-closer.o)
 .debug_frame   0x00019344       0xa8 d:/arc_gnu/bin/../lib/gcc/arc-elf32/7.1.1/../../../../arc-elf32/lib/em4_dmips\libc.a(lib_a-dtoa.o)
 .debug_frame   0x000193ec       0x20 d:/arc_gnu/bin/../lib/gcc/arc-elf32/7.1.1/../../../../arc-elf32/lib/em4_dmips\libc.a(lib_a-flags.o)
 .debug_frame   0x0001940c       0x5c d:/arc_gnu/bin/../lib/gcc/arc-elf32/7.1.1/../../../../arc-elf32/lib/em4_dmips\libc.a(lib_a-fvwrite.o)
 .debug_frame   0x00019468       0x6c d:/arc_gnu/bin/../lib/gcc/arc-elf32/7.1.1/../../../../arc-elf32/lib/em4_dmips\libc.a(lib_a-getenv_r.o)
 .debug_frame   0x000194d4       0x3c d:/arc_gnu/bin/../lib/gcc/arc-elf32/7.1.1/../../../../arc-elf32/lib/em4_dmips\libc.a(lib_a-gettimeofdayr.o)
 .debug_frame   0x00019510       0x20 d:/arc_gnu/bin/../lib/gcc/arc-elf32/7.1.1/../../../../arc-elf32/lib/em4_dmips\libc.a(lib_a-gettzinfo.o)
 .debug_frame   0x00019530       0x3c d:/arc_gnu/bin/../lib/gcc/arc-elf32/7.1.1/../../../../arc-elf32/lib/em4_dmips\libc.a(lib_a-isattyr.o)
 .debug_frame   0x0001956c       0x74 d:/arc_gnu/bin/../lib/gcc/arc-elf32/7.1.1/../../../../arc-elf32/lib/em4_dmips\libc.a(lib_a-locale.o)
 .debug_frame   0x000195e0       0x40 d:/arc_gnu/bin/../lib/gcc/arc-elf32/7.1.1/../../../../arc-elf32/lib/em4_dmips\libc.a(lib_a-localeconv.o)
 .debug_frame   0x00019620       0x3c d:/arc_gnu/bin/../lib/gcc/arc-elf32/7.1.1/../../../../arc-elf32/lib/em4_dmips\libc.a(lib_a-lseekr.o)
 .debug_frame   0x0001965c       0x40 d:/arc_gnu/bin/../lib/gcc/arc-elf32/7.1.1/../../../../arc-elf32/lib/em4_dmips\libc.a(lib_a-mbtowc_r.o)
 .debug_frame   0x0001969c      0x310 d:/arc_gnu/bin/../lib/gcc/arc-elf32/7.1.1/../../../../arc-elf32/lib/em4_dmips\libc.a(lib_a-mprec.o)
 .debug_frame   0x000199ac       0x84 d:/arc_gnu/bin/../lib/gcc/arc-elf32/7.1.1/../../../../arc-elf32/lib/em4_dmips\libc.a(lib_a-putc.o)
 .debug_frame   0x00019a30       0x3c d:/arc_gnu/bin/../lib/gcc/arc-elf32/7.1.1/../../../../arc-elf32/lib/em4_dmips\libc.a(lib_a-readr.o)
 .debug_frame   0x00019a6c       0x74 d:/arc_gnu/bin/../lib/gcc/arc-elf32/7.1.1/../../../../arc-elf32/lib/em4_dmips\libc.a(lib_a-reallocr.o)
 .debug_frame   0x00019ae0       0x6c d:/arc_gnu/bin/../lib/gcc/arc-elf32/7.1.1/../../../../arc-elf32/lib/em4_dmips\libc.a(lib_a-siscanf.o)
 .debug_frame   0x00019b4c       0x3c d:/arc_gnu/bin/../lib/gcc/arc-elf32/7.1.1/../../../../arc-elf32/lib/em4_dmips\libc.a(lib_a-statr.o)
 .debug_frame   0x00019b88       0x84 d:/arc_gnu/bin/../lib/gcc/arc-elf32/7.1.1/../../../../arc-elf32/lib/em4_dmips\libc.a(lib_a-strtoul.o)
 .debug_frame   0x00019c0c       0xb4 d:/arc_gnu/bin/../lib/gcc/arc-elf32/7.1.1/../../../../arc-elf32/lib/em4_dmips\libc.a(lib_a-svfiprintf.o)
 .debug_frame   0x00019cc0      0x118 d:/arc_gnu/bin/../lib/gcc/arc-elf32/7.1.1/../../../../arc-elf32/lib/em4_dmips\libc.a(lib_a-svfiscanf.o)
 .debug_frame   0x00019dd8       0x8c d:/arc_gnu/bin/../lib/gcc/arc-elf32/7.1.1/../../../../arc-elf32/lib/em4_dmips\libc.a(lib_a-ungetc.o)
 .debug_frame   0x00019e64      0x108 d:/arc_gnu/bin/../lib/gcc/arc-elf32/7.1.1/../../../../arc-elf32/lib/em4_dmips\libc.a(lib_a-vfiprintf.o)
 .debug_frame   0x00019f6c       0x54 d:/arc_gnu/bin/../lib/gcc/arc-elf32/7.1.1/../../../../arc-elf32/lib/em4_dmips\libc.a(lib_a-wbuf.o)
 .debug_frame   0x00019fc0       0x30 d:/arc_gnu/bin/../lib/gcc/arc-elf32/7.1.1/../../../../arc-elf32/lib/em4_dmips\libc.a(lib_a-wctomb_r.o)
 .debug_frame   0x00019ff0       0x30 d:/arc_gnu/bin/../lib/gcc/arc-elf32/7.1.1/../../../../arc-elf32/lib/em4_dmips\libc.a(lib_a-envlock.o)
 .debug_frame   0x0001a020       0x8c d:/arc_gnu/bin/../lib/gcc/arc-elf32/7.1.1/../../../../arc-elf32/lib/em4_dmips\libc.a(lib_a-fputwc.o)
 .debug_frame   0x0001a0ac       0x34 d:/arc_gnu/bin/../lib/gcc/arc-elf32/7.1.1/../../../../arc-elf32/lib/em4_dmips\libc.a(lib_a-iswspace.o)
 .debug_frame   0x0001a0e0       0x78 d:/arc_gnu/bin/../lib/gcc/arc-elf32/7.1.1/../../../../arc-elf32/lib/em4_dmips\libc.a(lib_a-mbrtowc.o)
 .debug_frame   0x0001a158       0x20 d:/arc_gnu/bin/../lib/gcc/arc-elf32/7.1.1/../../../../arc-elf32/lib/em4_dmips\libc.a(lib_a-sccl.o)
 .debug_frame   0x0001a178       0x9c d:/arc_gnu/bin/../lib/gcc/arc-elf32/7.1.1/../../../../arc-elf32/lib/em4_dmips\libc.a(lib_a-strtoll.o)
 .debug_frame   0x0001a214       0x98 d:/arc_gnu/bin/../lib/gcc/arc-elf32/7.1.1/../../../../arc-elf32/lib/em4_dmips\libc.a(lib_a-strtoull.o)
 .debug_frame   0x0001a2ac       0x88 d:/arc_gnu/bin/../lib/gcc/arc-elf32/7.1.1/../../../../arc-elf32/lib/em4_dmips\libc.a(lib_a-wcrtomb.o)
 .debug_frame   0x0001a334       0x20 d:/arc_gnu/bin/../lib/gcc/arc-elf32/7.1.1/em4_dmips\libgcc.a(_udivdi3.o)
 .debug_frame   0x0001a354       0x20 d:/arc_gnu/bin/../lib/gcc/arc-elf32/7.1.1/em4_dmips\libgcc.a(_umoddi3.o)
 .debug_frame   0x0001a374      0x2f4 d:/arc_gnu/bin/../lib/gcc/arc-elf32/7.1.1/em4_dmips\libgcc.a(fp-bit.o)
 .debug_frame   0x0001a668      0x334 d:/arc_gnu/bin/../lib/gcc/arc-elf32/7.1.1/em4_dmips\libgcc.a(dp-bit.o)
 .debug_frame   0x0001a99c       0x30 obj_emsk_22/gnu_arcem7d/library/clib/embarc_sbrk.o
 .debug_frame   0x0001a9cc      0x4cc obj_emsk_22/gnu_arcem7d/library/clib/embarc_syscalls.o
 .debug_frame   0x0001ae98       0x3c obj_emsk_22/gnu_arcem7d/library/clib/embarc_target.o
 .debug_frame   0x0001aed4       0x7c d:/arc_gnu/bin/../lib/gcc/arc-elf32/7.1.1/../../../../arc-elf32/lib/em4_dmips\libc.a(lib_a-mktime.o)
 .debug_frame   0x0001af50       0x6c d:/arc_gnu/bin/../lib/gcc/arc-elf32/7.1.1/../../../../arc-elf32/lib/em4_dmips\libc.a(lib_a-sscanf.o)
 .debug_frame   0x0001afbc       0x70 d:/arc_gnu/bin/../lib/gcc/arc-elf32/7.1.1/../../../../arc-elf32/lib/em4_dmips\libc.a(lib_a-svfscanf.o)
 .debug_frame   0x0001b02c       0x20 d:/arc_gnu/bin/../lib/gcc/arc-elf32/7.1.1/../../../../arc-elf32/lib/em4_dmips\libc.a(lib_a-div.o)
 .debug_frame   0x0001b04c       0x20 d:/arc_gnu/bin/../lib/gcc/arc-elf32/7.1.1/../../../../arc-elf32/lib/em4_dmips\libc.a(lib_a-sf_nan.o)
 .debug_frame   0x0001b06c      0x14c d:/arc_gnu/bin/../lib/gcc/arc-elf32/7.1.1/../../../../arc-elf32/lib/em4_dmips\libc.a(lib_a-strtod.o)
 .debug_frame   0x0001b1b8       0x7c d:/arc_gnu/bin/../lib/gcc/arc-elf32/7.1.1/../../../../arc-elf32/lib/em4_dmips\libc.a(lib_a-gdtoa-gethex.o)
 .debug_frame   0x0001b234       0x68 d:/arc_gnu/bin/../lib/gcc/arc-elf32/7.1.1/../../../../arc-elf32/lib/em4_dmips\libc.a(lib_a-gdtoa-hexnan.o)

.debug_ranges   0x00000000      0x280
 .debug_ranges  0x00000000       0x30 obj_emsk_22/gnu_arcem7d/middleware/lwip/src/core/dns.o
 .debug_ranges  0x00000030       0x18 obj_emsk_22/gnu_arcem7d/middleware/lwip/src/core/tcp.o
 .debug_ranges  0x00000048       0x60 obj_emsk_22/gnu_arcem7d/middleware/lwip/src/core/tcp_in.o
 .debug_ranges  0x000000a8       0x18 obj_emsk_22/gnu_arcem7d/middleware/lwip/src/core/ipv4/icmp.o
 .debug_ranges  0x000000c0       0x18 obj_emsk_22/gnu_arcem7d/middleware/mbedtls/library/x509_crt.o
 .debug_ranges  0x000000d8       0x18 obj_emsk_22/gnu_arcem7d/middleware/mbedtls/library/ssl_tls.o
 .debug_ranges  0x000000f0       0x38 obj_emsk_22/gnu_arcem7d/middleware/u8glib/csrc/u8g_clip.o
 .debug_ranges  0x00000128       0x30 obj_emsk_22/gnu_arcem7d/middleware/u8glib/csrc/u8g_circle.o
 .debug_ranges  0x00000158       0x78 obj_emsk_22/gnu_arcem7d/middleware/lwip/src/core/tcp_out.o
 .debug_ranges  0x000001d0       0x18 obj_emsk_22/gnu_arcem7d/middleware/lwip/src/api/sockets.o
 .debug_ranges  0x000001e8       0x18 obj_emsk_22/gnu_arcem7d/middleware/mbedtls/library/ssl_cli.o
 .debug_ranges  0x00000200       0x30 obj_emsk_22/gnu_arcem7d/middleware/mbedtls/library/ecp.o
 .debug_ranges  0x00000230       0x18 obj_emsk_22/gnu_arcem7d/middleware/mbedtls/library/ssl_srv.o
 .debug_ranges  0x00000248       0x18 obj_emsk_22/gnu_arcem7d/middleware/mbedtls/library/ecdsa.o
 .debug_ranges  0x00000260       0x20 obj_emsk_22/gnu_arcem7d/middleware/lwip/src/api/api_msg.o
